; Listing generated by Microsoft (R) Optimizing Compiler Version 18.00.30501.0 

	TITLE	C:\Users\Simon\Documents\GitHub\Post-Processing\Import\Math\CMatrix4x4.cpp
	.686P
	.XMM
	include listing.inc
	.model	flat

INCLUDELIB LIBCMT
INCLUDELIB OLDNAMES

PUBLIC	?digits@?$numeric_limits@H@std@@2HB		; std::numeric_limits<int>::digits
PUBLIC	?digits10@?$numeric_limits@H@std@@2HB		; std::numeric_limits<int>::digits10
PUBLIC	?skipws@?$_Iosb@H@std@@2W4_Fmtflags@12@B	; std::_Iosb<int>::skipws
PUBLIC	?unitbuf@?$_Iosb@H@std@@2W4_Fmtflags@12@B	; std::_Iosb<int>::unitbuf
PUBLIC	?uppercase@?$_Iosb@H@std@@2W4_Fmtflags@12@B	; std::_Iosb<int>::uppercase
PUBLIC	?showbase@?$_Iosb@H@std@@2W4_Fmtflags@12@B	; std::_Iosb<int>::showbase
PUBLIC	?showpoint@?$_Iosb@H@std@@2W4_Fmtflags@12@B	; std::_Iosb<int>::showpoint
PUBLIC	?showpos@?$_Iosb@H@std@@2W4_Fmtflags@12@B	; std::_Iosb<int>::showpos
PUBLIC	?left@?$_Iosb@H@std@@2W4_Fmtflags@12@B		; std::_Iosb<int>::left
PUBLIC	?right@?$_Iosb@H@std@@2W4_Fmtflags@12@B		; std::_Iosb<int>::right
PUBLIC	?internal@?$_Iosb@H@std@@2W4_Fmtflags@12@B	; std::_Iosb<int>::internal
PUBLIC	?value@?$integral_constant@I$0A@@std@@2IB	; std::integral_constant<unsigned int,0>::value
PUBLIC	?dec@?$_Iosb@H@std@@2W4_Fmtflags@12@B		; std::_Iosb<int>::dec
PUBLIC	?is_signed@?$numeric_limits@I@std@@2_NB		; std::numeric_limits<unsigned int>::is_signed
PUBLIC	?oct@?$_Iosb@H@std@@2W4_Fmtflags@12@B		; std::_Iosb<int>::oct
PUBLIC	?digits@?$numeric_limits@I@std@@2HB		; std::numeric_limits<unsigned int>::digits
PUBLIC	?hex@?$_Iosb@H@std@@2W4_Fmtflags@12@B		; std::_Iosb<int>::hex
PUBLIC	?scientific@?$_Iosb@H@std@@2W4_Fmtflags@12@B	; std::_Iosb<int>::scientific
PUBLIC	?digits10@?$numeric_limits@I@std@@2HB		; std::numeric_limits<unsigned int>::digits10
PUBLIC	?fixed@?$_Iosb@H@std@@2W4_Fmtflags@12@B		; std::_Iosb<int>::fixed
PUBLIC	?hexfloat@?$_Iosb@H@std@@2W4_Fmtflags@12@B	; std::_Iosb<int>::hexfloat
PUBLIC	?boolalpha@?$_Iosb@H@std@@2W4_Fmtflags@12@B	; std::_Iosb<int>::boolalpha
PUBLIC	?_Stdio@?$_Iosb@H@std@@2W4_Fmtflags@12@B	; std::_Iosb<int>::_Stdio
PUBLIC	?adjustfield@?$_Iosb@H@std@@2W4_Fmtflags@12@B	; std::_Iosb<int>::adjustfield
PUBLIC	?basefield@?$_Iosb@H@std@@2W4_Fmtflags@12@B	; std::_Iosb<int>::basefield
PUBLIC	?floatfield@?$_Iosb@H@std@@2W4_Fmtflags@12@B	; std::_Iosb<int>::floatfield
PUBLIC	?goodbit@?$_Iosb@H@std@@2W4_Iostate@12@B	; std::_Iosb<int>::goodbit
PUBLIC	?eofbit@?$_Iosb@H@std@@2W4_Iostate@12@B		; std::_Iosb<int>::eofbit
PUBLIC	?is_signed@?$numeric_limits@J@std@@2_NB		; std::numeric_limits<long>::is_signed
PUBLIC	?failbit@?$_Iosb@H@std@@2W4_Iostate@12@B	; std::_Iosb<int>::failbit
PUBLIC	?digits@?$numeric_limits@J@std@@2HB		; std::numeric_limits<long>::digits
PUBLIC	?badbit@?$_Iosb@H@std@@2W4_Iostate@12@B		; std::_Iosb<int>::badbit
PUBLIC	?_Hardfail@?$_Iosb@H@std@@2W4_Iostate@12@B	; std::_Iosb<int>::_Hardfail
PUBLIC	?digits10@?$numeric_limits@J@std@@2HB		; std::numeric_limits<long>::digits10
PUBLIC	?in@?$_Iosb@H@std@@2W4_Openmode@12@B		; std::_Iosb<int>::in
PUBLIC	?out@?$_Iosb@H@std@@2W4_Openmode@12@B		; std::_Iosb<int>::out
PUBLIC	?value@?$integral_constant@_N$0A@@std@@2_NB	; std::integral_constant<bool,0>::value
PUBLIC	?ate@?$_Iosb@H@std@@2W4_Openmode@12@B		; std::_Iosb<int>::ate
PUBLIC	?app@?$_Iosb@H@std@@2W4_Openmode@12@B		; std::_Iosb<int>::app
PUBLIC	?trunc@?$_Iosb@H@std@@2W4_Openmode@12@B		; std::_Iosb<int>::trunc
PUBLIC	?_Nocreate@?$_Iosb@H@std@@2W4_Openmode@12@B	; std::_Iosb<int>::_Nocreate
PUBLIC	?_Noreplace@?$_Iosb@H@std@@2W4_Openmode@12@B	; std::_Iosb<int>::_Noreplace
PUBLIC	?value@?$integral_constant@_N$00@std@@2_NB	; std::integral_constant<bool,1>::value
PUBLIC	?binary@?$_Iosb@H@std@@2W4_Openmode@12@B	; std::_Iosb<int>::binary
PUBLIC	?beg@?$_Iosb@H@std@@2W4_Seekdir@12@B		; std::_Iosb<int>::beg
PUBLIC	?is_signed@?$numeric_limits@K@std@@2_NB		; std::numeric_limits<unsigned long>::is_signed
PUBLIC	?cur@?$_Iosb@H@std@@2W4_Seekdir@12@B		; std::_Iosb<int>::cur
PUBLIC	?digits@?$numeric_limits@K@std@@2HB		; std::numeric_limits<unsigned long>::digits
PUBLIC	?end@?$_Iosb@H@std@@2W4_Seekdir@12@B		; std::_Iosb<int>::end
PUBLIC	?digits10@?$numeric_limits@K@std@@2HB		; std::numeric_limits<unsigned long>::digits10
PUBLIC	?is_signed@?$numeric_limits@_J@std@@2_NB	; std::numeric_limits<__int64>::is_signed
PUBLIC	?digits@?$numeric_limits@_J@std@@2HB		; std::numeric_limits<__int64>::digits
PUBLIC	?digits10@?$numeric_limits@_J@std@@2HB		; std::numeric_limits<__int64>::digits10
PUBLIC	?is_signed@?$numeric_limits@_K@std@@2_NB	; std::numeric_limits<unsigned __int64>::is_signed
PUBLIC	?digits@?$numeric_limits@_K@std@@2HB		; std::numeric_limits<unsigned __int64>::digits
PUBLIC	?digits10@?$numeric_limits@_K@std@@2HB		; std::numeric_limits<unsigned __int64>::digits10
PUBLIC	?digits@?$numeric_limits@M@std@@2HB		; std::numeric_limits<float>::digits
PUBLIC	?digits10@?$numeric_limits@M@std@@2HB		; std::numeric_limits<float>::digits10
PUBLIC	?max_digits10@?$numeric_limits@M@std@@2HB	; std::numeric_limits<float>::max_digits10
PUBLIC	?max_exponent@?$numeric_limits@M@std@@2HB	; std::numeric_limits<float>::max_exponent
PUBLIC	?max_exponent10@?$numeric_limits@M@std@@2HB	; std::numeric_limits<float>::max_exponent10
PUBLIC	?min_exponent@?$numeric_limits@M@std@@2HB	; std::numeric_limits<float>::min_exponent
PUBLIC	?min_exponent10@?$numeric_limits@M@std@@2HB	; std::numeric_limits<float>::min_exponent10
PUBLIC	?digits@?$numeric_limits@N@std@@2HB		; std::numeric_limits<double>::digits
PUBLIC	?digits10@?$numeric_limits@N@std@@2HB		; std::numeric_limits<double>::digits10
PUBLIC	?max_digits10@?$numeric_limits@N@std@@2HB	; std::numeric_limits<double>::max_digits10
PUBLIC	?max_exponent@?$numeric_limits@N@std@@2HB	; std::numeric_limits<double>::max_exponent
PUBLIC	?max_exponent10@?$numeric_limits@N@std@@2HB	; std::numeric_limits<double>::max_exponent10
PUBLIC	?min_exponent@?$numeric_limits@N@std@@2HB	; std::numeric_limits<double>::min_exponent
PUBLIC	?min_exponent10@?$numeric_limits@N@std@@2HB	; std::numeric_limits<double>::min_exponent10
PUBLIC	?collate@?$_Locbase@H@std@@2HB			; std::_Locbase<int>::collate
PUBLIC	?ctype@?$_Locbase@H@std@@2HB			; std::_Locbase<int>::ctype
PUBLIC	?monetary@?$_Locbase@H@std@@2HB			; std::_Locbase<int>::monetary
PUBLIC	?numeric@?$_Locbase@H@std@@2HB			; std::_Locbase<int>::numeric
PUBLIC	?time@?$_Locbase@H@std@@2HB			; std::_Locbase<int>::time
PUBLIC	?messages@?$_Locbase@H@std@@2HB			; std::_Locbase<int>::messages
PUBLIC	?all@?$_Locbase@H@std@@2HB			; std::_Locbase<int>::all
PUBLIC	?none@?$_Locbase@H@std@@2HB			; std::_Locbase<int>::none
PUBLIC	?digits@?$numeric_limits@O@std@@2HB		; std::numeric_limits<long double>::digits
PUBLIC	?digits10@?$numeric_limits@O@std@@2HB		; std::numeric_limits<long double>::digits10
PUBLIC	?max_digits10@?$numeric_limits@O@std@@2HB	; std::numeric_limits<long double>::max_digits10
PUBLIC	?max_exponent@?$numeric_limits@O@std@@2HB	; std::numeric_limits<long double>::max_exponent
PUBLIC	?max_exponent10@?$numeric_limits@O@std@@2HB	; std::numeric_limits<long double>::max_exponent10
PUBLIC	?min_exponent@?$numeric_limits@O@std@@2HB	; std::numeric_limits<long double>::min_exponent
PUBLIC	?min_exponent10@?$numeric_limits@O@std@@2HB	; std::numeric_limits<long double>::min_exponent10
PUBLIC	?table_size@?$ctype@D@std@@2IB			; std::ctype<char>::table_size
PUBLIC	?has_denorm@_Num_base@std@@2W4float_denorm_style@2@B ; std::_Num_base::has_denorm
PUBLIC	?has_denorm_loss@_Num_base@std@@2_NB		; std::_Num_base::has_denorm_loss
PUBLIC	?has_infinity@_Num_base@std@@2_NB		; std::_Num_base::has_infinity
PUBLIC	?has_quiet_NaN@_Num_base@std@@2_NB		; std::_Num_base::has_quiet_NaN
PUBLIC	?has_signaling_NaN@_Num_base@std@@2_NB		; std::_Num_base::has_signaling_NaN
PUBLIC	?is_bounded@_Num_base@std@@2_NB			; std::_Num_base::is_bounded
PUBLIC	?is_exact@_Num_base@std@@2_NB			; std::_Num_base::is_exact
PUBLIC	?is_iec559@_Num_base@std@@2_NB			; std::_Num_base::is_iec559
PUBLIC	?is_integer@_Num_base@std@@2_NB			; std::_Num_base::is_integer
PUBLIC	?is_modulo@_Num_base@std@@2_NB			; std::_Num_base::is_modulo
PUBLIC	?is_signed@_Num_base@std@@2_NB			; std::_Num_base::is_signed
PUBLIC	?is_specialized@_Num_base@std@@2_NB		; std::_Num_base::is_specialized
PUBLIC	?tinyness_before@_Num_base@std@@2_NB		; std::_Num_base::tinyness_before
PUBLIC	?traps@_Num_base@std@@2_NB			; std::_Num_base::traps
PUBLIC	?round_style@_Num_base@std@@2W4float_round_style@2@B ; std::_Num_base::round_style
PUBLIC	?digits@_Num_base@std@@2HB			; std::_Num_base::digits
PUBLIC	?digits10@_Num_base@std@@2HB			; std::_Num_base::digits10
PUBLIC	?max_digits10@_Num_base@std@@2HB		; std::_Num_base::max_digits10
PUBLIC	?max_exponent@_Num_base@std@@2HB		; std::_Num_base::max_exponent
PUBLIC	?max_exponent10@_Num_base@std@@2HB		; std::_Num_base::max_exponent10
PUBLIC	?min_exponent@_Num_base@std@@2HB		; std::_Num_base::min_exponent
PUBLIC	?min_exponent10@_Num_base@std@@2HB		; std::_Num_base::min_exponent10
PUBLIC	?radix@_Num_base@std@@2HB			; std::_Num_base::radix
PUBLIC	?is_bounded@_Num_int_base@std@@2_NB		; std::_Num_int_base::is_bounded
PUBLIC	?is_exact@_Num_int_base@std@@2_NB		; std::_Num_int_base::is_exact
PUBLIC	?is_integer@_Num_int_base@std@@2_NB		; std::_Num_int_base::is_integer
PUBLIC	?is_modulo@_Num_int_base@std@@2_NB		; std::_Num_int_base::is_modulo
PUBLIC	?is_specialized@_Num_int_base@std@@2_NB		; std::_Num_int_base::is_specialized
PUBLIC	?radix@_Num_int_base@std@@2HB			; std::_Num_int_base::radix
PUBLIC	?has_denorm@_Num_float_base@std@@2W4float_denorm_style@2@B ; std::_Num_float_base::has_denorm
PUBLIC	?has_denorm_loss@_Num_float_base@std@@2_NB	; std::_Num_float_base::has_denorm_loss
PUBLIC	?has_infinity@_Num_float_base@std@@2_NB		; std::_Num_float_base::has_infinity
PUBLIC	?has_quiet_NaN@_Num_float_base@std@@2_NB	; std::_Num_float_base::has_quiet_NaN
PUBLIC	?has_signaling_NaN@_Num_float_base@std@@2_NB	; std::_Num_float_base::has_signaling_NaN
PUBLIC	?is_bounded@_Num_float_base@std@@2_NB		; std::_Num_float_base::is_bounded
PUBLIC	?is_exact@_Num_float_base@std@@2_NB		; std::_Num_float_base::is_exact
PUBLIC	?is_iec559@_Num_float_base@std@@2_NB		; std::_Num_float_base::is_iec559
PUBLIC	?is_integer@_Num_float_base@std@@2_NB		; std::_Num_float_base::is_integer
PUBLIC	?is_modulo@_Num_float_base@std@@2_NB		; std::_Num_float_base::is_modulo
PUBLIC	?is_signed@_Num_float_base@std@@2_NB		; std::_Num_float_base::is_signed
PUBLIC	?is_specialized@_Num_float_base@std@@2_NB	; std::_Num_float_base::is_specialized
PUBLIC	?tinyness_before@_Num_float_base@std@@2_NB	; std::_Num_float_base::tinyness_before
PUBLIC	?traps@_Num_float_base@std@@2_NB		; std::_Num_float_base::traps
PUBLIC	?round_style@_Num_float_base@std@@2W4float_round_style@2@B ; std::_Num_float_base::round_style
PUBLIC	?radix@_Num_float_base@std@@2HB			; std::_Num_float_base::radix
PUBLIC	?is_signed@?$numeric_limits@D@std@@2_NB		; std::numeric_limits<char>::is_signed
PUBLIC	?digits@?$numeric_limits@D@std@@2HB		; std::numeric_limits<char>::digits
PUBLIC	?digits10@?$numeric_limits@D@std@@2HB		; std::numeric_limits<char>::digits10
PUBLIC	?is_signed@?$numeric_limits@_W@std@@2_NB	; std::numeric_limits<wchar_t>::is_signed
PUBLIC	?digits@?$numeric_limits@_W@std@@2HB		; std::numeric_limits<wchar_t>::digits
PUBLIC	?digits10@?$numeric_limits@_W@std@@2HB		; std::numeric_limits<wchar_t>::digits10
PUBLIC	?value@?$integral_constant@I$07@std@@2IB	; std::integral_constant<unsigned int,8>::value
PUBLIC	?is_modulo@?$numeric_limits@_N@std@@2_NB	; std::numeric_limits<bool>::is_modulo
PUBLIC	?is_signed@?$numeric_limits@_N@std@@2_NB	; std::numeric_limits<bool>::is_signed
PUBLIC	?digits@?$numeric_limits@_N@std@@2HB		; std::numeric_limits<bool>::digits
PUBLIC	?digits10@?$numeric_limits@_N@std@@2HB		; std::numeric_limits<bool>::digits10
PUBLIC	?is_signed@?$numeric_limits@C@std@@2_NB		; std::numeric_limits<signed char>::is_signed
PUBLIC	?digits@?$numeric_limits@C@std@@2HB		; std::numeric_limits<signed char>::digits
PUBLIC	?value@?$integral_constant@I$03@std@@2IB	; std::integral_constant<unsigned int,4>::value
PUBLIC	?digits10@?$numeric_limits@C@std@@2HB		; std::numeric_limits<signed char>::digits10
PUBLIC	?is_signed@?$numeric_limits@E@std@@2_NB		; std::numeric_limits<unsigned char>::is_signed
PUBLIC	?digits@?$numeric_limits@E@std@@2HB		; std::numeric_limits<unsigned char>::digits
PUBLIC	?digits10@?$numeric_limits@E@std@@2HB		; std::numeric_limits<unsigned char>::digits10
PUBLIC	?value@?$integral_constant@I$01@std@@2IB	; std::integral_constant<unsigned int,2>::value
PUBLIC	?is_signed@?$numeric_limits@F@std@@2_NB		; std::numeric_limits<short>::is_signed
PUBLIC	?digits@?$numeric_limits@F@std@@2HB		; std::numeric_limits<short>::digits
PUBLIC	?digits10@?$numeric_limits@F@std@@2HB		; std::numeric_limits<short>::digits10
PUBLIC	?is_signed@?$numeric_limits@G@std@@2_NB		; std::numeric_limits<unsigned short>::is_signed
PUBLIC	?digits@?$numeric_limits@G@std@@2HB		; std::numeric_limits<unsigned short>::digits
PUBLIC	?digits10@?$numeric_limits@G@std@@2HB		; std::numeric_limits<unsigned short>::digits10
PUBLIC	?value@?$integral_constant@I$00@std@@2IB	; std::integral_constant<unsigned int,1>::value
PUBLIC	?is_signed@?$numeric_limits@H@std@@2_NB		; std::numeric_limits<int>::is_signed
PUBLIC	?value@?$_Maximum@$S@std@@2IB			; std::_Maximum<>::value
;	COMDAT ?value@?$_Maximum@$S@std@@2IB
CONST	SEGMENT
?value@?$_Maximum@$S@std@@2IB DD 00H			; std::_Maximum<>::value
CONST	ENDS
;	COMDAT ?is_signed@?$numeric_limits@H@std@@2_NB
CONST	SEGMENT
?is_signed@?$numeric_limits@H@std@@2_NB DB 01H		; std::numeric_limits<int>::is_signed
CONST	ENDS
;	COMDAT ?value@?$integral_constant@I$00@std@@2IB
CONST	SEGMENT
?value@?$integral_constant@I$00@std@@2IB DD 01H		; std::integral_constant<unsigned int,1>::value
CONST	ENDS
;	COMDAT ?digits10@?$numeric_limits@G@std@@2HB
CONST	SEGMENT
?digits10@?$numeric_limits@G@std@@2HB DD 04H		; std::numeric_limits<unsigned short>::digits10
CONST	ENDS
;	COMDAT ?digits@?$numeric_limits@G@std@@2HB
CONST	SEGMENT
?digits@?$numeric_limits@G@std@@2HB DD 010H		; std::numeric_limits<unsigned short>::digits
CONST	ENDS
;	COMDAT ?is_signed@?$numeric_limits@G@std@@2_NB
CONST	SEGMENT
?is_signed@?$numeric_limits@G@std@@2_NB DB 00H		; std::numeric_limits<unsigned short>::is_signed
CONST	ENDS
;	COMDAT ?digits10@?$numeric_limits@F@std@@2HB
CONST	SEGMENT
?digits10@?$numeric_limits@F@std@@2HB DD 04H		; std::numeric_limits<short>::digits10
CONST	ENDS
;	COMDAT ?digits@?$numeric_limits@F@std@@2HB
CONST	SEGMENT
?digits@?$numeric_limits@F@std@@2HB DD 0fH		; std::numeric_limits<short>::digits
CONST	ENDS
;	COMDAT ?is_signed@?$numeric_limits@F@std@@2_NB
CONST	SEGMENT
?is_signed@?$numeric_limits@F@std@@2_NB DB 01H		; std::numeric_limits<short>::is_signed
CONST	ENDS
;	COMDAT ?value@?$integral_constant@I$01@std@@2IB
CONST	SEGMENT
?value@?$integral_constant@I$01@std@@2IB DD 02H		; std::integral_constant<unsigned int,2>::value
CONST	ENDS
;	COMDAT ?digits10@?$numeric_limits@E@std@@2HB
CONST	SEGMENT
?digits10@?$numeric_limits@E@std@@2HB DD 02H		; std::numeric_limits<unsigned char>::digits10
CONST	ENDS
;	COMDAT ?digits@?$numeric_limits@E@std@@2HB
CONST	SEGMENT
?digits@?$numeric_limits@E@std@@2HB DD 08H		; std::numeric_limits<unsigned char>::digits
CONST	ENDS
;	COMDAT ?is_signed@?$numeric_limits@E@std@@2_NB
CONST	SEGMENT
?is_signed@?$numeric_limits@E@std@@2_NB DB 00H		; std::numeric_limits<unsigned char>::is_signed
CONST	ENDS
;	COMDAT ?digits10@?$numeric_limits@C@std@@2HB
CONST	SEGMENT
?digits10@?$numeric_limits@C@std@@2HB DD 02H		; std::numeric_limits<signed char>::digits10
CONST	ENDS
;	COMDAT ?value@?$integral_constant@I$03@std@@2IB
CONST	SEGMENT
?value@?$integral_constant@I$03@std@@2IB DD 04H		; std::integral_constant<unsigned int,4>::value
CONST	ENDS
;	COMDAT ?digits@?$numeric_limits@C@std@@2HB
CONST	SEGMENT
?digits@?$numeric_limits@C@std@@2HB DD 07H		; std::numeric_limits<signed char>::digits
CONST	ENDS
;	COMDAT ?is_signed@?$numeric_limits@C@std@@2_NB
CONST	SEGMENT
?is_signed@?$numeric_limits@C@std@@2_NB DB 01H		; std::numeric_limits<signed char>::is_signed
CONST	ENDS
;	COMDAT ?digits10@?$numeric_limits@_N@std@@2HB
CONST	SEGMENT
?digits10@?$numeric_limits@_N@std@@2HB DD 00H		; std::numeric_limits<bool>::digits10
CONST	ENDS
;	COMDAT ?digits@?$numeric_limits@_N@std@@2HB
CONST	SEGMENT
?digits@?$numeric_limits@_N@std@@2HB DD 01H		; std::numeric_limits<bool>::digits
CONST	ENDS
;	COMDAT ?is_signed@?$numeric_limits@_N@std@@2_NB
CONST	SEGMENT
?is_signed@?$numeric_limits@_N@std@@2_NB DB 00H		; std::numeric_limits<bool>::is_signed
CONST	ENDS
;	COMDAT ?is_modulo@?$numeric_limits@_N@std@@2_NB
CONST	SEGMENT
?is_modulo@?$numeric_limits@_N@std@@2_NB DB 00H		; std::numeric_limits<bool>::is_modulo
CONST	ENDS
;	COMDAT ?value@?$integral_constant@I$07@std@@2IB
CONST	SEGMENT
?value@?$integral_constant@I$07@std@@2IB DD 08H		; std::integral_constant<unsigned int,8>::value
CONST	ENDS
;	COMDAT ?digits10@?$numeric_limits@_W@std@@2HB
CONST	SEGMENT
?digits10@?$numeric_limits@_W@std@@2HB DD 04H		; std::numeric_limits<wchar_t>::digits10
CONST	ENDS
;	COMDAT ?digits@?$numeric_limits@_W@std@@2HB
CONST	SEGMENT
?digits@?$numeric_limits@_W@std@@2HB DD 010H		; std::numeric_limits<wchar_t>::digits
CONST	ENDS
;	COMDAT ?is_signed@?$numeric_limits@_W@std@@2_NB
CONST	SEGMENT
?is_signed@?$numeric_limits@_W@std@@2_NB DB 00H		; std::numeric_limits<wchar_t>::is_signed
CONST	ENDS
;	COMDAT ?digits10@?$numeric_limits@D@std@@2HB
CONST	SEGMENT
?digits10@?$numeric_limits@D@std@@2HB DD 02H		; std::numeric_limits<char>::digits10
CONST	ENDS
;	COMDAT ?digits@?$numeric_limits@D@std@@2HB
CONST	SEGMENT
?digits@?$numeric_limits@D@std@@2HB DD 07H		; std::numeric_limits<char>::digits
CONST	ENDS
;	COMDAT ?is_signed@?$numeric_limits@D@std@@2_NB
CONST	SEGMENT
?is_signed@?$numeric_limits@D@std@@2_NB DB 01H		; std::numeric_limits<char>::is_signed
CONST	ENDS
;	COMDAT ?radix@_Num_float_base@std@@2HB
CONST	SEGMENT
?radix@_Num_float_base@std@@2HB DD 02H			; std::_Num_float_base::radix
CONST	ENDS
;	COMDAT ?round_style@_Num_float_base@std@@2W4float_round_style@2@B
CONST	SEGMENT
?round_style@_Num_float_base@std@@2W4float_round_style@2@B DD 01H ; std::_Num_float_base::round_style
CONST	ENDS
;	COMDAT ?traps@_Num_float_base@std@@2_NB
CONST	SEGMENT
?traps@_Num_float_base@std@@2_NB DB 00H			; std::_Num_float_base::traps
CONST	ENDS
;	COMDAT ?tinyness_before@_Num_float_base@std@@2_NB
CONST	SEGMENT
?tinyness_before@_Num_float_base@std@@2_NB DB 01H	; std::_Num_float_base::tinyness_before
CONST	ENDS
;	COMDAT ?is_specialized@_Num_float_base@std@@2_NB
CONST	SEGMENT
?is_specialized@_Num_float_base@std@@2_NB DB 01H	; std::_Num_float_base::is_specialized
CONST	ENDS
;	COMDAT ?is_signed@_Num_float_base@std@@2_NB
CONST	SEGMENT
?is_signed@_Num_float_base@std@@2_NB DB 01H		; std::_Num_float_base::is_signed
CONST	ENDS
;	COMDAT ?is_modulo@_Num_float_base@std@@2_NB
CONST	SEGMENT
?is_modulo@_Num_float_base@std@@2_NB DB 00H		; std::_Num_float_base::is_modulo
CONST	ENDS
;	COMDAT ?is_integer@_Num_float_base@std@@2_NB
CONST	SEGMENT
?is_integer@_Num_float_base@std@@2_NB DB 00H		; std::_Num_float_base::is_integer
CONST	ENDS
;	COMDAT ?is_iec559@_Num_float_base@std@@2_NB
CONST	SEGMENT
?is_iec559@_Num_float_base@std@@2_NB DB 01H		; std::_Num_float_base::is_iec559
CONST	ENDS
;	COMDAT ?is_exact@_Num_float_base@std@@2_NB
CONST	SEGMENT
?is_exact@_Num_float_base@std@@2_NB DB 00H		; std::_Num_float_base::is_exact
CONST	ENDS
;	COMDAT ?is_bounded@_Num_float_base@std@@2_NB
CONST	SEGMENT
?is_bounded@_Num_float_base@std@@2_NB DB 01H		; std::_Num_float_base::is_bounded
CONST	ENDS
;	COMDAT ?has_signaling_NaN@_Num_float_base@std@@2_NB
CONST	SEGMENT
?has_signaling_NaN@_Num_float_base@std@@2_NB DB 01H	; std::_Num_float_base::has_signaling_NaN
CONST	ENDS
;	COMDAT ?has_quiet_NaN@_Num_float_base@std@@2_NB
CONST	SEGMENT
?has_quiet_NaN@_Num_float_base@std@@2_NB DB 01H		; std::_Num_float_base::has_quiet_NaN
CONST	ENDS
;	COMDAT ?has_infinity@_Num_float_base@std@@2_NB
CONST	SEGMENT
?has_infinity@_Num_float_base@std@@2_NB DB 01H		; std::_Num_float_base::has_infinity
CONST	ENDS
;	COMDAT ?has_denorm_loss@_Num_float_base@std@@2_NB
CONST	SEGMENT
?has_denorm_loss@_Num_float_base@std@@2_NB DB 01H	; std::_Num_float_base::has_denorm_loss
CONST	ENDS
;	COMDAT ?has_denorm@_Num_float_base@std@@2W4float_denorm_style@2@B
CONST	SEGMENT
?has_denorm@_Num_float_base@std@@2W4float_denorm_style@2@B DD 01H ; std::_Num_float_base::has_denorm
CONST	ENDS
;	COMDAT ?radix@_Num_int_base@std@@2HB
CONST	SEGMENT
?radix@_Num_int_base@std@@2HB DD 02H			; std::_Num_int_base::radix
CONST	ENDS
;	COMDAT ?is_specialized@_Num_int_base@std@@2_NB
CONST	SEGMENT
?is_specialized@_Num_int_base@std@@2_NB DB 01H		; std::_Num_int_base::is_specialized
CONST	ENDS
;	COMDAT ?is_modulo@_Num_int_base@std@@2_NB
CONST	SEGMENT
?is_modulo@_Num_int_base@std@@2_NB DB 01H		; std::_Num_int_base::is_modulo
CONST	ENDS
;	COMDAT ?is_integer@_Num_int_base@std@@2_NB
CONST	SEGMENT
?is_integer@_Num_int_base@std@@2_NB DB 01H		; std::_Num_int_base::is_integer
CONST	ENDS
;	COMDAT ?is_exact@_Num_int_base@std@@2_NB
CONST	SEGMENT
?is_exact@_Num_int_base@std@@2_NB DB 01H		; std::_Num_int_base::is_exact
CONST	ENDS
;	COMDAT ?is_bounded@_Num_int_base@std@@2_NB
CONST	SEGMENT
?is_bounded@_Num_int_base@std@@2_NB DB 01H		; std::_Num_int_base::is_bounded
CONST	ENDS
;	COMDAT ?radix@_Num_base@std@@2HB
CONST	SEGMENT
?radix@_Num_base@std@@2HB DD 00H			; std::_Num_base::radix
CONST	ENDS
;	COMDAT ?min_exponent10@_Num_base@std@@2HB
CONST	SEGMENT
?min_exponent10@_Num_base@std@@2HB DD 00H		; std::_Num_base::min_exponent10
CONST	ENDS
;	COMDAT ?min_exponent@_Num_base@std@@2HB
CONST	SEGMENT
?min_exponent@_Num_base@std@@2HB DD 00H			; std::_Num_base::min_exponent
CONST	ENDS
;	COMDAT ?max_exponent10@_Num_base@std@@2HB
CONST	SEGMENT
?max_exponent10@_Num_base@std@@2HB DD 00H		; std::_Num_base::max_exponent10
CONST	ENDS
;	COMDAT ?max_exponent@_Num_base@std@@2HB
CONST	SEGMENT
?max_exponent@_Num_base@std@@2HB DD 00H			; std::_Num_base::max_exponent
CONST	ENDS
;	COMDAT ?max_digits10@_Num_base@std@@2HB
CONST	SEGMENT
?max_digits10@_Num_base@std@@2HB DD 00H			; std::_Num_base::max_digits10
CONST	ENDS
;	COMDAT ?digits10@_Num_base@std@@2HB
CONST	SEGMENT
?digits10@_Num_base@std@@2HB DD 00H			; std::_Num_base::digits10
CONST	ENDS
;	COMDAT ?digits@_Num_base@std@@2HB
CONST	SEGMENT
?digits@_Num_base@std@@2HB DD 00H			; std::_Num_base::digits
CONST	ENDS
;	COMDAT ?round_style@_Num_base@std@@2W4float_round_style@2@B
CONST	SEGMENT
?round_style@_Num_base@std@@2W4float_round_style@2@B DD 00H ; std::_Num_base::round_style
CONST	ENDS
;	COMDAT ?traps@_Num_base@std@@2_NB
CONST	SEGMENT
?traps@_Num_base@std@@2_NB DB 00H			; std::_Num_base::traps
CONST	ENDS
;	COMDAT ?tinyness_before@_Num_base@std@@2_NB
CONST	SEGMENT
?tinyness_before@_Num_base@std@@2_NB DB 00H		; std::_Num_base::tinyness_before
CONST	ENDS
;	COMDAT ?is_specialized@_Num_base@std@@2_NB
CONST	SEGMENT
?is_specialized@_Num_base@std@@2_NB DB 00H		; std::_Num_base::is_specialized
CONST	ENDS
;	COMDAT ?is_signed@_Num_base@std@@2_NB
CONST	SEGMENT
?is_signed@_Num_base@std@@2_NB DB 00H			; std::_Num_base::is_signed
CONST	ENDS
;	COMDAT ?is_modulo@_Num_base@std@@2_NB
CONST	SEGMENT
?is_modulo@_Num_base@std@@2_NB DB 00H			; std::_Num_base::is_modulo
CONST	ENDS
;	COMDAT ?is_integer@_Num_base@std@@2_NB
CONST	SEGMENT
?is_integer@_Num_base@std@@2_NB DB 00H			; std::_Num_base::is_integer
CONST	ENDS
;	COMDAT ?is_iec559@_Num_base@std@@2_NB
CONST	SEGMENT
?is_iec559@_Num_base@std@@2_NB DB 00H			; std::_Num_base::is_iec559
CONST	ENDS
;	COMDAT ?is_exact@_Num_base@std@@2_NB
CONST	SEGMENT
?is_exact@_Num_base@std@@2_NB DB 00H			; std::_Num_base::is_exact
CONST	ENDS
;	COMDAT ?is_bounded@_Num_base@std@@2_NB
CONST	SEGMENT
?is_bounded@_Num_base@std@@2_NB DB 00H			; std::_Num_base::is_bounded
CONST	ENDS
;	COMDAT ?has_signaling_NaN@_Num_base@std@@2_NB
CONST	SEGMENT
?has_signaling_NaN@_Num_base@std@@2_NB DB 00H		; std::_Num_base::has_signaling_NaN
CONST	ENDS
;	COMDAT ?has_quiet_NaN@_Num_base@std@@2_NB
CONST	SEGMENT
?has_quiet_NaN@_Num_base@std@@2_NB DB 00H		; std::_Num_base::has_quiet_NaN
CONST	ENDS
;	COMDAT ?has_infinity@_Num_base@std@@2_NB
CONST	SEGMENT
?has_infinity@_Num_base@std@@2_NB DB 00H		; std::_Num_base::has_infinity
CONST	ENDS
;	COMDAT ?has_denorm_loss@_Num_base@std@@2_NB
CONST	SEGMENT
?has_denorm_loss@_Num_base@std@@2_NB DB 00H		; std::_Num_base::has_denorm_loss
CONST	ENDS
;	COMDAT ?has_denorm@_Num_base@std@@2W4float_denorm_style@2@B
CONST	SEGMENT
?has_denorm@_Num_base@std@@2W4float_denorm_style@2@B DD 00H ; std::_Num_base::has_denorm
CONST	ENDS
;	COMDAT ?table_size@?$ctype@D@std@@2IB
CONST	SEGMENT
?table_size@?$ctype@D@std@@2IB DD 0100H			; std::ctype<char>::table_size
CONST	ENDS
CONST	SEGMENT
_kfPi	DD	040490fdbr			; 3.14159
_kfEpsilon DD	0350637bdr			; 5e-007
_kfPi64	DQ	0400921fb54442d18r		; 3.14159
CONST	ENDS
;	COMDAT ?min_exponent10@?$numeric_limits@O@std@@2HB
CONST	SEGMENT
?min_exponent10@?$numeric_limits@O@std@@2HB DD 0fffffecdH ; std::numeric_limits<long double>::min_exponent10
CONST	ENDS
;	COMDAT ?min_exponent@?$numeric_limits@O@std@@2HB
CONST	SEGMENT
?min_exponent@?$numeric_limits@O@std@@2HB DD 0fffffc03H	; std::numeric_limits<long double>::min_exponent
CONST	ENDS
;	COMDAT ?max_exponent10@?$numeric_limits@O@std@@2HB
CONST	SEGMENT
?max_exponent10@?$numeric_limits@O@std@@2HB DD 0134H	; std::numeric_limits<long double>::max_exponent10
CONST	ENDS
;	COMDAT ?max_exponent@?$numeric_limits@O@std@@2HB
CONST	SEGMENT
?max_exponent@?$numeric_limits@O@std@@2HB DD 0400H	; std::numeric_limits<long double>::max_exponent
CONST	ENDS
;	COMDAT ?max_digits10@?$numeric_limits@O@std@@2HB
CONST	SEGMENT
?max_digits10@?$numeric_limits@O@std@@2HB DD 011H	; std::numeric_limits<long double>::max_digits10
CONST	ENDS
;	COMDAT ?digits10@?$numeric_limits@O@std@@2HB
CONST	SEGMENT
?digits10@?$numeric_limits@O@std@@2HB DD 0fH		; std::numeric_limits<long double>::digits10
CONST	ENDS
;	COMDAT ?digits@?$numeric_limits@O@std@@2HB
CONST	SEGMENT
?digits@?$numeric_limits@O@std@@2HB DD 035H		; std::numeric_limits<long double>::digits
CONST	ENDS
;	COMDAT ?none@?$_Locbase@H@std@@2HB
CONST	SEGMENT
?none@?$_Locbase@H@std@@2HB DD 00H			; std::_Locbase<int>::none
CONST	ENDS
;	COMDAT ?all@?$_Locbase@H@std@@2HB
CONST	SEGMENT
?all@?$_Locbase@H@std@@2HB DD 03fH			; std::_Locbase<int>::all
CONST	ENDS
;	COMDAT ?messages@?$_Locbase@H@std@@2HB
CONST	SEGMENT
?messages@?$_Locbase@H@std@@2HB DD 020H			; std::_Locbase<int>::messages
CONST	ENDS
;	COMDAT ?time@?$_Locbase@H@std@@2HB
CONST	SEGMENT
?time@?$_Locbase@H@std@@2HB DD 010H			; std::_Locbase<int>::time
CONST	ENDS
;	COMDAT ?numeric@?$_Locbase@H@std@@2HB
CONST	SEGMENT
?numeric@?$_Locbase@H@std@@2HB DD 08H			; std::_Locbase<int>::numeric
CONST	ENDS
;	COMDAT ?monetary@?$_Locbase@H@std@@2HB
CONST	SEGMENT
?monetary@?$_Locbase@H@std@@2HB DD 04H			; std::_Locbase<int>::monetary
CONST	ENDS
;	COMDAT ?ctype@?$_Locbase@H@std@@2HB
CONST	SEGMENT
?ctype@?$_Locbase@H@std@@2HB DD 02H			; std::_Locbase<int>::ctype
CONST	ENDS
;	COMDAT ?collate@?$_Locbase@H@std@@2HB
CONST	SEGMENT
?collate@?$_Locbase@H@std@@2HB DD 01H			; std::_Locbase<int>::collate
CONST	ENDS
;	COMDAT ?min_exponent10@?$numeric_limits@N@std@@2HB
CONST	SEGMENT
?min_exponent10@?$numeric_limits@N@std@@2HB DD 0fffffecdH ; std::numeric_limits<double>::min_exponent10
CONST	ENDS
;	COMDAT ?min_exponent@?$numeric_limits@N@std@@2HB
CONST	SEGMENT
?min_exponent@?$numeric_limits@N@std@@2HB DD 0fffffc03H	; std::numeric_limits<double>::min_exponent
CONST	ENDS
;	COMDAT ?max_exponent10@?$numeric_limits@N@std@@2HB
CONST	SEGMENT
?max_exponent10@?$numeric_limits@N@std@@2HB DD 0134H	; std::numeric_limits<double>::max_exponent10
CONST	ENDS
;	COMDAT ?max_exponent@?$numeric_limits@N@std@@2HB
CONST	SEGMENT
?max_exponent@?$numeric_limits@N@std@@2HB DD 0400H	; std::numeric_limits<double>::max_exponent
CONST	ENDS
;	COMDAT ?max_digits10@?$numeric_limits@N@std@@2HB
CONST	SEGMENT
?max_digits10@?$numeric_limits@N@std@@2HB DD 011H	; std::numeric_limits<double>::max_digits10
CONST	ENDS
;	COMDAT ?digits10@?$numeric_limits@N@std@@2HB
CONST	SEGMENT
?digits10@?$numeric_limits@N@std@@2HB DD 0fH		; std::numeric_limits<double>::digits10
CONST	ENDS
;	COMDAT ?digits@?$numeric_limits@N@std@@2HB
CONST	SEGMENT
?digits@?$numeric_limits@N@std@@2HB DD 035H		; std::numeric_limits<double>::digits
CONST	ENDS
;	COMDAT ?min_exponent10@?$numeric_limits@M@std@@2HB
CONST	SEGMENT
?min_exponent10@?$numeric_limits@M@std@@2HB DD 0ffffffdbH ; std::numeric_limits<float>::min_exponent10
CONST	ENDS
;	COMDAT ?min_exponent@?$numeric_limits@M@std@@2HB
CONST	SEGMENT
?min_exponent@?$numeric_limits@M@std@@2HB DD 0ffffff83H	; std::numeric_limits<float>::min_exponent
CONST	ENDS
;	COMDAT ?max_exponent10@?$numeric_limits@M@std@@2HB
CONST	SEGMENT
?max_exponent10@?$numeric_limits@M@std@@2HB DD 026H	; std::numeric_limits<float>::max_exponent10
CONST	ENDS
;	COMDAT ?max_exponent@?$numeric_limits@M@std@@2HB
CONST	SEGMENT
?max_exponent@?$numeric_limits@M@std@@2HB DD 080H	; std::numeric_limits<float>::max_exponent
CONST	ENDS
;	COMDAT ?max_digits10@?$numeric_limits@M@std@@2HB
CONST	SEGMENT
?max_digits10@?$numeric_limits@M@std@@2HB DD 09H	; std::numeric_limits<float>::max_digits10
CONST	ENDS
;	COMDAT ?digits10@?$numeric_limits@M@std@@2HB
CONST	SEGMENT
?digits10@?$numeric_limits@M@std@@2HB DD 06H		; std::numeric_limits<float>::digits10
CONST	ENDS
;	COMDAT ?digits@?$numeric_limits@M@std@@2HB
CONST	SEGMENT
?digits@?$numeric_limits@M@std@@2HB DD 018H		; std::numeric_limits<float>::digits
CONST	ENDS
;	COMDAT ?digits10@?$numeric_limits@_K@std@@2HB
CONST	SEGMENT
?digits10@?$numeric_limits@_K@std@@2HB DD 013H		; std::numeric_limits<unsigned __int64>::digits10
CONST	ENDS
;	COMDAT ?digits@?$numeric_limits@_K@std@@2HB
CONST	SEGMENT
?digits@?$numeric_limits@_K@std@@2HB DD 040H		; std::numeric_limits<unsigned __int64>::digits
CONST	ENDS
;	COMDAT ?is_signed@?$numeric_limits@_K@std@@2_NB
CONST	SEGMENT
?is_signed@?$numeric_limits@_K@std@@2_NB DB 00H		; std::numeric_limits<unsigned __int64>::is_signed
CONST	ENDS
;	COMDAT ?digits10@?$numeric_limits@_J@std@@2HB
CONST	SEGMENT
?digits10@?$numeric_limits@_J@std@@2HB DD 012H		; std::numeric_limits<__int64>::digits10
CONST	ENDS
;	COMDAT ?digits@?$numeric_limits@_J@std@@2HB
CONST	SEGMENT
?digits@?$numeric_limits@_J@std@@2HB DD 03fH		; std::numeric_limits<__int64>::digits
CONST	ENDS
;	COMDAT ?is_signed@?$numeric_limits@_J@std@@2_NB
CONST	SEGMENT
?is_signed@?$numeric_limits@_J@std@@2_NB DB 01H		; std::numeric_limits<__int64>::is_signed
CONST	ENDS
;	COMDAT ?digits10@?$numeric_limits@K@std@@2HB
CONST	SEGMENT
?digits10@?$numeric_limits@K@std@@2HB DD 09H		; std::numeric_limits<unsigned long>::digits10
CONST	ENDS
;	COMDAT ?end@?$_Iosb@H@std@@2W4_Seekdir@12@B
CONST	SEGMENT
?end@?$_Iosb@H@std@@2W4_Seekdir@12@B DD 02H		; std::_Iosb<int>::end
CONST	ENDS
;	COMDAT ?digits@?$numeric_limits@K@std@@2HB
CONST	SEGMENT
?digits@?$numeric_limits@K@std@@2HB DD 020H		; std::numeric_limits<unsigned long>::digits
CONST	ENDS
;	COMDAT ?cur@?$_Iosb@H@std@@2W4_Seekdir@12@B
CONST	SEGMENT
?cur@?$_Iosb@H@std@@2W4_Seekdir@12@B DD 01H		; std::_Iosb<int>::cur
CONST	ENDS
;	COMDAT ?is_signed@?$numeric_limits@K@std@@2_NB
CONST	SEGMENT
?is_signed@?$numeric_limits@K@std@@2_NB DB 00H		; std::numeric_limits<unsigned long>::is_signed
CONST	ENDS
;	COMDAT ?beg@?$_Iosb@H@std@@2W4_Seekdir@12@B
CONST	SEGMENT
?beg@?$_Iosb@H@std@@2W4_Seekdir@12@B DD 00H		; std::_Iosb<int>::beg
CONST	ENDS
;	COMDAT ?binary@?$_Iosb@H@std@@2W4_Openmode@12@B
CONST	SEGMENT
?binary@?$_Iosb@H@std@@2W4_Openmode@12@B DD 020H	; std::_Iosb<int>::binary
CONST	ENDS
;	COMDAT ?value@?$integral_constant@_N$00@std@@2_NB
CONST	SEGMENT
?value@?$integral_constant@_N$00@std@@2_NB DB 01H	; std::integral_constant<bool,1>::value
CONST	ENDS
;	COMDAT ?_Noreplace@?$_Iosb@H@std@@2W4_Openmode@12@B
CONST	SEGMENT
?_Noreplace@?$_Iosb@H@std@@2W4_Openmode@12@B DD 080H	; std::_Iosb<int>::_Noreplace
CONST	ENDS
;	COMDAT ?_Nocreate@?$_Iosb@H@std@@2W4_Openmode@12@B
CONST	SEGMENT
?_Nocreate@?$_Iosb@H@std@@2W4_Openmode@12@B DD 040H	; std::_Iosb<int>::_Nocreate
CONST	ENDS
;	COMDAT ?trunc@?$_Iosb@H@std@@2W4_Openmode@12@B
CONST	SEGMENT
?trunc@?$_Iosb@H@std@@2W4_Openmode@12@B DD 010H		; std::_Iosb<int>::trunc
CONST	ENDS
;	COMDAT ?app@?$_Iosb@H@std@@2W4_Openmode@12@B
CONST	SEGMENT
?app@?$_Iosb@H@std@@2W4_Openmode@12@B DD 08H		; std::_Iosb<int>::app
CONST	ENDS
;	COMDAT ?ate@?$_Iosb@H@std@@2W4_Openmode@12@B
CONST	SEGMENT
?ate@?$_Iosb@H@std@@2W4_Openmode@12@B DD 04H		; std::_Iosb<int>::ate
CONST	ENDS
;	COMDAT ?value@?$integral_constant@_N$0A@@std@@2_NB
CONST	SEGMENT
?value@?$integral_constant@_N$0A@@std@@2_NB DB 00H	; std::integral_constant<bool,0>::value
CONST	ENDS
;	COMDAT ?out@?$_Iosb@H@std@@2W4_Openmode@12@B
CONST	SEGMENT
?out@?$_Iosb@H@std@@2W4_Openmode@12@B DD 02H		; std::_Iosb<int>::out
CONST	ENDS
;	COMDAT ?in@?$_Iosb@H@std@@2W4_Openmode@12@B
CONST	SEGMENT
?in@?$_Iosb@H@std@@2W4_Openmode@12@B DD 01H		; std::_Iosb<int>::in
CONST	ENDS
;	COMDAT ?digits10@?$numeric_limits@J@std@@2HB
CONST	SEGMENT
?digits10@?$numeric_limits@J@std@@2HB DD 09H		; std::numeric_limits<long>::digits10
CONST	ENDS
;	COMDAT ?_Hardfail@?$_Iosb@H@std@@2W4_Iostate@12@B
CONST	SEGMENT
?_Hardfail@?$_Iosb@H@std@@2W4_Iostate@12@B DD 010H	; std::_Iosb<int>::_Hardfail
CONST	ENDS
;	COMDAT ?badbit@?$_Iosb@H@std@@2W4_Iostate@12@B
CONST	SEGMENT
?badbit@?$_Iosb@H@std@@2W4_Iostate@12@B DD 04H		; std::_Iosb<int>::badbit
CONST	ENDS
;	COMDAT ?digits@?$numeric_limits@J@std@@2HB
CONST	SEGMENT
?digits@?$numeric_limits@J@std@@2HB DD 01fH		; std::numeric_limits<long>::digits
CONST	ENDS
;	COMDAT ?failbit@?$_Iosb@H@std@@2W4_Iostate@12@B
CONST	SEGMENT
?failbit@?$_Iosb@H@std@@2W4_Iostate@12@B DD 02H		; std::_Iosb<int>::failbit
CONST	ENDS
;	COMDAT ?is_signed@?$numeric_limits@J@std@@2_NB
CONST	SEGMENT
?is_signed@?$numeric_limits@J@std@@2_NB DB 01H		; std::numeric_limits<long>::is_signed
CONST	ENDS
;	COMDAT ?eofbit@?$_Iosb@H@std@@2W4_Iostate@12@B
CONST	SEGMENT
?eofbit@?$_Iosb@H@std@@2W4_Iostate@12@B DD 01H		; std::_Iosb<int>::eofbit
CONST	ENDS
;	COMDAT ?goodbit@?$_Iosb@H@std@@2W4_Iostate@12@B
CONST	SEGMENT
?goodbit@?$_Iosb@H@std@@2W4_Iostate@12@B DD 00H		; std::_Iosb<int>::goodbit
CONST	ENDS
;	COMDAT ?floatfield@?$_Iosb@H@std@@2W4_Fmtflags@12@B
CONST	SEGMENT
?floatfield@?$_Iosb@H@std@@2W4_Fmtflags@12@B DD 03000H	; std::_Iosb<int>::floatfield
CONST	ENDS
;	COMDAT ?basefield@?$_Iosb@H@std@@2W4_Fmtflags@12@B
CONST	SEGMENT
?basefield@?$_Iosb@H@std@@2W4_Fmtflags@12@B DD 0e00H	; std::_Iosb<int>::basefield
CONST	ENDS
;	COMDAT ?adjustfield@?$_Iosb@H@std@@2W4_Fmtflags@12@B
CONST	SEGMENT
?adjustfield@?$_Iosb@H@std@@2W4_Fmtflags@12@B DD 01c0H	; std::_Iosb<int>::adjustfield
CONST	ENDS
;	COMDAT ?_Stdio@?$_Iosb@H@std@@2W4_Fmtflags@12@B
CONST	SEGMENT
?_Stdio@?$_Iosb@H@std@@2W4_Fmtflags@12@B DD 08000H	; std::_Iosb<int>::_Stdio
CONST	ENDS
;	COMDAT ?boolalpha@?$_Iosb@H@std@@2W4_Fmtflags@12@B
CONST	SEGMENT
?boolalpha@?$_Iosb@H@std@@2W4_Fmtflags@12@B DD 04000H	; std::_Iosb<int>::boolalpha
CONST	ENDS
;	COMDAT ?hexfloat@?$_Iosb@H@std@@2W4_Fmtflags@12@B
CONST	SEGMENT
?hexfloat@?$_Iosb@H@std@@2W4_Fmtflags@12@B DD 03000H	; std::_Iosb<int>::hexfloat
CONST	ENDS
;	COMDAT ?fixed@?$_Iosb@H@std@@2W4_Fmtflags@12@B
CONST	SEGMENT
?fixed@?$_Iosb@H@std@@2W4_Fmtflags@12@B DD 02000H	; std::_Iosb<int>::fixed
CONST	ENDS
;	COMDAT ?digits10@?$numeric_limits@I@std@@2HB
CONST	SEGMENT
?digits10@?$numeric_limits@I@std@@2HB DD 09H		; std::numeric_limits<unsigned int>::digits10
CONST	ENDS
;	COMDAT ?scientific@?$_Iosb@H@std@@2W4_Fmtflags@12@B
CONST	SEGMENT
?scientific@?$_Iosb@H@std@@2W4_Fmtflags@12@B DD 01000H	; std::_Iosb<int>::scientific
CONST	ENDS
;	COMDAT ?hex@?$_Iosb@H@std@@2W4_Fmtflags@12@B
CONST	SEGMENT
?hex@?$_Iosb@H@std@@2W4_Fmtflags@12@B DD 0800H		; std::_Iosb<int>::hex
CONST	ENDS
;	COMDAT ?digits@?$numeric_limits@I@std@@2HB
CONST	SEGMENT
?digits@?$numeric_limits@I@std@@2HB DD 020H		; std::numeric_limits<unsigned int>::digits
CONST	ENDS
;	COMDAT ?oct@?$_Iosb@H@std@@2W4_Fmtflags@12@B
CONST	SEGMENT
?oct@?$_Iosb@H@std@@2W4_Fmtflags@12@B DD 0400H		; std::_Iosb<int>::oct
CONST	ENDS
;	COMDAT ?is_signed@?$numeric_limits@I@std@@2_NB
CONST	SEGMENT
?is_signed@?$numeric_limits@I@std@@2_NB DB 00H		; std::numeric_limits<unsigned int>::is_signed
CONST	ENDS
;	COMDAT ?dec@?$_Iosb@H@std@@2W4_Fmtflags@12@B
CONST	SEGMENT
?dec@?$_Iosb@H@std@@2W4_Fmtflags@12@B DD 0200H		; std::_Iosb<int>::dec
CONST	ENDS
;	COMDAT ?value@?$integral_constant@I$0A@@std@@2IB
CONST	SEGMENT
?value@?$integral_constant@I$0A@@std@@2IB DD 00H	; std::integral_constant<unsigned int,0>::value
CONST	ENDS
;	COMDAT ?internal@?$_Iosb@H@std@@2W4_Fmtflags@12@B
CONST	SEGMENT
?internal@?$_Iosb@H@std@@2W4_Fmtflags@12@B DD 0100H	; std::_Iosb<int>::internal
CONST	ENDS
;	COMDAT ?right@?$_Iosb@H@std@@2W4_Fmtflags@12@B
CONST	SEGMENT
?right@?$_Iosb@H@std@@2W4_Fmtflags@12@B DD 080H		; std::_Iosb<int>::right
CONST	ENDS
;	COMDAT ?left@?$_Iosb@H@std@@2W4_Fmtflags@12@B
CONST	SEGMENT
?left@?$_Iosb@H@std@@2W4_Fmtflags@12@B DD 040H		; std::_Iosb<int>::left
CONST	ENDS
;	COMDAT ?showpos@?$_Iosb@H@std@@2W4_Fmtflags@12@B
CONST	SEGMENT
?showpos@?$_Iosb@H@std@@2W4_Fmtflags@12@B DD 020H	; std::_Iosb<int>::showpos
CONST	ENDS
;	COMDAT ?showpoint@?$_Iosb@H@std@@2W4_Fmtflags@12@B
CONST	SEGMENT
?showpoint@?$_Iosb@H@std@@2W4_Fmtflags@12@B DD 010H	; std::_Iosb<int>::showpoint
CONST	ENDS
;	COMDAT ?showbase@?$_Iosb@H@std@@2W4_Fmtflags@12@B
CONST	SEGMENT
?showbase@?$_Iosb@H@std@@2W4_Fmtflags@12@B DD 08H	; std::_Iosb<int>::showbase
CONST	ENDS
;	COMDAT ?uppercase@?$_Iosb@H@std@@2W4_Fmtflags@12@B
CONST	SEGMENT
?uppercase@?$_Iosb@H@std@@2W4_Fmtflags@12@B DD 04H	; std::_Iosb<int>::uppercase
CONST	ENDS
;	COMDAT ?unitbuf@?$_Iosb@H@std@@2W4_Fmtflags@12@B
CONST	SEGMENT
?unitbuf@?$_Iosb@H@std@@2W4_Fmtflags@12@B DD 02H	; std::_Iosb<int>::unitbuf
CONST	ENDS
;	COMDAT ?skipws@?$_Iosb@H@std@@2W4_Fmtflags@12@B
CONST	SEGMENT
?skipws@?$_Iosb@H@std@@2W4_Fmtflags@12@B DD 01H		; std::_Iosb<int>::skipws
CONST	ENDS
;	COMDAT ?digits10@?$numeric_limits@H@std@@2HB
CONST	SEGMENT
?digits10@?$numeric_limits@H@std@@2HB DD 09H		; std::numeric_limits<int>::digits10
CONST	ENDS
;	COMDAT ?digits@?$numeric_limits@H@std@@2HB
CONST	SEGMENT
?digits@?$numeric_limits@H@std@@2HB DD 01fH		; std::numeric_limits<int>::digits
CONST	ENDS
PUBLIC	_hypot
PUBLIC	_acosf
PUBLIC	_atan2f
PUBLIC	_cosf
PUBLIC	_fabsf
PUBLIC	_sinf
PUBLIC	_sqrtf
PUBLIC	??2@YAPAXIPAX@Z					; operator new
PUBLIC	??3@YAXPAX0@Z					; operator delete
PUBLIC	?length@?$char_traits@D@std@@SAIPBD@Z		; std::char_traits<char>::length
PUBLIC	?copy@?$char_traits@D@std@@SAPADPADPBDI@Z	; std::char_traits<char>::copy
PUBLIC	?move@?$char_traits@D@std@@SAPADPADPBDI@Z	; std::char_traits<char>::move
PUBLIC	?assign@?$char_traits@D@std@@SAXAADABD@Z	; std::char_traits<char>::assign
PUBLIC	?select_on_container_copy_construction@?$allocator@D@std@@QBE?AV12@XZ ; std::allocator<char>::select_on_container_copy_construction
PUBLIC	??0?$allocator@D@std@@QAE@XZ			; std::allocator<char>::allocator<char>
PUBLIC	??0?$allocator@D@std@@QAE@ABV01@@Z		; std::allocator<char>::allocator<char>
PUBLIC	?deallocate@?$allocator@D@std@@QAEXPADI@Z	; std::allocator<char>::deallocate
PUBLIC	?allocate@?$allocator@D@std@@QAEPADI@Z		; std::allocator<char>::allocate
PUBLIC	?max_size@?$allocator@D@std@@QBEIXZ		; std::allocator<char>::max_size
PUBLIC	?max_size@?$allocator_traits@V?$allocator@D@std@@@std@@SAIABV?$allocator@D@2@@Z ; std::allocator_traits<std::allocator<char> >::max_size
PUBLIC	?select_on_container_copy_construction@?$allocator_traits@V?$allocator@D@std@@@std@@SA?AV?$allocator@D@2@ABV32@@Z ; std::allocator_traits<std::allocator<char> >::select_on_container_copy_construction
PUBLIC	?select_on_container_copy_construction@?$_Wrap_alloc@V?$allocator@D@std@@@std@@QBE?AU12@XZ ; std::_Wrap_alloc<std::allocator<char> >::select_on_container_copy_construction
PUBLIC	??0?$_Wrap_alloc@V?$allocator@D@std@@@std@@QAE@XZ ; std::_Wrap_alloc<std::allocator<char> >::_Wrap_alloc<std::allocator<char> >
PUBLIC	??0?$_Wrap_alloc@V?$allocator@D@std@@@std@@QAE@ABV?$allocator@D@1@@Z ; std::_Wrap_alloc<std::allocator<char> >::_Wrap_alloc<std::allocator<char> >
PUBLIC	?allocate@?$_Wrap_alloc@V?$allocator@D@std@@@std@@QAEPADI@Z ; std::_Wrap_alloc<std::allocator<char> >::allocate
PUBLIC	?deallocate@?$_Wrap_alloc@V?$allocator@D@std@@@std@@QAEXPADI@Z ; std::_Wrap_alloc<std::allocator<char> >::deallocate
PUBLIC	?max_size@?$_Wrap_alloc@V?$allocator@D@std@@@std@@QBEIXZ ; std::_Wrap_alloc<std::allocator<char> >::max_size
PUBLIC	??0?$_String_val@U?$_Simple_types@D@std@@@std@@QAE@XZ ; std::_String_val<std::_Simple_types<char> >::_String_val<std::_Simple_types<char> >
PUBLIC	?_Myptr@?$_String_val@U?$_Simple_types@D@std@@@std@@QAEPADXZ ; std::_String_val<std::_Simple_types<char> >::_Myptr
PUBLIC	?_Myptr@?$_String_val@U?$_Simple_types@D@std@@@std@@QBEPBDXZ ; std::_String_val<std::_Simple_types<char> >::_Myptr
PUBLIC	??0?$_String_alloc@$0A@U?$_String_base_types@DV?$allocator@D@std@@@std@@@std@@QAE@ABV?$allocator@D@1@@Z ; std::_String_alloc<0,std::_String_base_types<char,std::allocator<char> > >::_String_alloc<0,std::_String_base_types<char,std::allocator<char> > >
PUBLIC	?_Getal@?$_String_alloc@$0A@U?$_String_base_types@DV?$allocator@D@std@@@std@@@std@@QBE?AU?$_Wrap_alloc@V?$allocator@D@std@@@2@XZ ; std::_String_alloc<0,std::_String_base_types<char,std::allocator<char> > >::_Getal
PUBLIC	??0?$basic_string@DU?$char_traits@D@std@@V?$allocator@D@2@@std@@QAE@ABV01@@Z ; std::basic_string<char,std::char_traits<char>,std::allocator<char> >::basic_string<char,std::char_traits<char>,std::allocator<char> >
PUBLIC	??0?$basic_string@DU?$char_traits@D@std@@V?$allocator@D@2@@std@@QAE@PBD@Z ; std::basic_string<char,std::char_traits<char>,std::allocator<char> >::basic_string<char,std::char_traits<char>,std::allocator<char> >
PUBLIC	??1?$basic_string@DU?$char_traits@D@std@@V?$allocator@D@2@@std@@QAE@XZ ; std::basic_string<char,std::char_traits<char>,std::allocator<char> >::~basic_string<char,std::char_traits<char>,std::allocator<char> >
PUBLIC	?assign@?$basic_string@DU?$char_traits@D@std@@V?$allocator@D@2@@std@@QAEAAV12@ABV12@II@Z ; std::basic_string<char,std::char_traits<char>,std::allocator<char> >::assign
PUBLIC	?assign@?$basic_string@DU?$char_traits@D@std@@V?$allocator@D@2@@std@@QAEAAV12@PBDI@Z ; std::basic_string<char,std::char_traits<char>,std::allocator<char> >::assign
PUBLIC	?assign@?$basic_string@DU?$char_traits@D@std@@V?$allocator@D@2@@std@@QAEAAV12@PBD@Z ; std::basic_string<char,std::char_traits<char>,std::allocator<char> >::assign
PUBLIC	?erase@?$basic_string@DU?$char_traits@D@std@@V?$allocator@D@2@@std@@QAEAAV12@I@Z ; std::basic_string<char,std::char_traits<char>,std::allocator<char> >::erase
PUBLIC	?erase@?$basic_string@DU?$char_traits@D@std@@V?$allocator@D@2@@std@@QAEAAV12@II@Z ; std::basic_string<char,std::char_traits<char>,std::allocator<char> >::erase
PUBLIC	?size@?$basic_string@DU?$char_traits@D@std@@V?$allocator@D@2@@std@@QBEIXZ ; std::basic_string<char,std::char_traits<char>,std::allocator<char> >::size
PUBLIC	?max_size@?$basic_string@DU?$char_traits@D@std@@V?$allocator@D@2@@std@@QBEIXZ ; std::basic_string<char,std::char_traits<char>,std::allocator<char> >::max_size
PUBLIC	?_Copy@?$basic_string@DU?$char_traits@D@std@@V?$allocator@D@2@@std@@QAEXII@Z ; std::basic_string<char,std::char_traits<char>,std::allocator<char> >::_Copy
PUBLIC	?_Eos@?$basic_string@DU?$char_traits@D@std@@V?$allocator@D@2@@std@@QAEXI@Z ; std::basic_string<char,std::char_traits<char>,std::allocator<char> >::_Eos
PUBLIC	?_Grow@?$basic_string@DU?$char_traits@D@std@@V?$allocator@D@2@@std@@QAE_NI_N@Z ; std::basic_string<char,std::char_traits<char>,std::allocator<char> >::_Grow
PUBLIC	?_Inside@?$basic_string@DU?$char_traits@D@std@@V?$allocator@D@2@@std@@QAE_NPBD@Z ; std::basic_string<char,std::char_traits<char>,std::allocator<char> >::_Inside
PUBLIC	?_Tidy@?$basic_string@DU?$char_traits@D@std@@V?$allocator@D@2@@std@@QAEX_NI@Z ; std::basic_string<char,std::char_traits<char>,std::allocator<char> >::_Tidy
PUBLIC	?_Xlen@?$basic_string@DU?$char_traits@D@std@@V?$allocator@D@2@@std@@QBEXXZ ; std::basic_string<char,std::char_traits<char>,std::allocator<char> >::_Xlen
PUBLIC	?_Xran@?$basic_string@DU?$char_traits@D@std@@V?$allocator@D@2@@std@@QBEXXZ ; std::basic_string<char,std::char_traits<char>,std::allocator<char> >::_Xran
PUBLIC	??0id@locale@std@@QAE@I@Z			; std::locale::id::id
PUBLIC	?generic_category@std@@YAABVerror_category@1@XZ	; std::generic_category
PUBLIC	?system_category@std@@YAABVerror_category@1@XZ	; std::system_category
PUBLIC	??0error_category@std@@QAE@XZ			; std::error_category::error_category
PUBLIC	??1error_category@std@@UAE@XZ			; std::error_category::~error_category
PUBLIC	?default_error_condition@error_category@std@@UBE?AVerror_condition@2@H@Z ; std::error_category::default_error_condition
PUBLIC	?equivalent@error_category@std@@UBE_NHABVerror_condition@2@@Z ; std::error_category::equivalent
PUBLIC	?equivalent@error_category@std@@UBE_NABVerror_code@2@H@Z ; std::error_category::equivalent
PUBLIC	??8error_category@std@@QBE_NABV01@@Z		; std::error_category::operator==
PUBLIC	??_Gerror_category@std@@UAEPAXI@Z		; std::error_category::`scalar deleting destructor'
PUBLIC	?value@error_code@std@@QBEHXZ			; std::error_code::value
PUBLIC	?category@error_code@std@@QBEABVerror_category@2@XZ ; std::error_code::category
PUBLIC	??0error_condition@std@@QAE@HABVerror_category@1@@Z ; std::error_condition::error_condition
PUBLIC	?value@error_condition@std@@QBEHXZ		; std::error_condition::value
PUBLIC	?category@error_condition@std@@QBEABVerror_category@2@XZ ; std::error_condition::category
PUBLIC	??8error_condition@std@@QBE_NABV01@@Z		; std::error_condition::operator==
PUBLIC	??0_Generic_error_category@std@@QAE@XZ		; std::_Generic_error_category::_Generic_error_category
PUBLIC	?name@_Generic_error_category@std@@UBEPBDXZ	; std::_Generic_error_category::name
PUBLIC	?message@_Generic_error_category@std@@UBE?AV?$basic_string@DU?$char_traits@D@std@@V?$allocator@D@2@@2@H@Z ; std::_Generic_error_category::message
PUBLIC	??1_Generic_error_category@std@@UAE@XZ		; std::_Generic_error_category::~_Generic_error_category
PUBLIC	??_G_Generic_error_category@std@@UAEPAXI@Z	; std::_Generic_error_category::`scalar deleting destructor'
PUBLIC	??0_Iostream_error_category@std@@QAE@XZ		; std::_Iostream_error_category::_Iostream_error_category
PUBLIC	?name@_Iostream_error_category@std@@UBEPBDXZ	; std::_Iostream_error_category::name
PUBLIC	?message@_Iostream_error_category@std@@UBE?AV?$basic_string@DU?$char_traits@D@std@@V?$allocator@D@2@@2@H@Z ; std::_Iostream_error_category::message
PUBLIC	??1_Iostream_error_category@std@@UAE@XZ		; std::_Iostream_error_category::~_Iostream_error_category
PUBLIC	??_G_Iostream_error_category@std@@UAEPAXI@Z	; std::_Iostream_error_category::`scalar deleting destructor'
PUBLIC	??0_System_error_category@std@@QAE@XZ		; std::_System_error_category::_System_error_category
PUBLIC	?name@_System_error_category@std@@UBEPBDXZ	; std::_System_error_category::name
PUBLIC	?message@_System_error_category@std@@UBE?AV?$basic_string@DU?$char_traits@D@std@@V?$allocator@D@2@@2@H@Z ; std::_System_error_category::message
PUBLIC	?default_error_condition@_System_error_category@std@@UBE?AVerror_condition@2@H@Z ; std::_System_error_category::default_error_condition
PUBLIC	??1_System_error_category@std@@UAE@XZ		; std::_System_error_category::~_System_error_category
PUBLIC	??_G_System_error_category@std@@UAEPAXI@Z	; std::_System_error_category::`scalar deleting destructor'
PUBLIC	?ObjectName@gen@@YAPBDXZ			; gen::ObjectName
PUBLIC	??0CFatalException@gen@@QAE@PBD0H@Z		; gen::CFatalException::CFatalException
PUBLIC	??0CFatalException@gen@@QAE@PBD00@Z		; gen::CFatalException::CFatalException
PUBLIC	??1CFatalException@gen@@QAE@XZ			; gen::CFatalException::~CFatalException
PUBLIC	??0CFatalException@gen@@QAE@ABV01@@Z		; gen::CFatalException::CFatalException
PUBLIC	?Abs@gen@@YAIH@Z				; gen::Abs
PUBLIC	?Abs@gen@@YAMM@Z				; gen::Abs
PUBLIC	?Sqrt@gen@@YAMM@Z				; gen::Sqrt
PUBLIC	?Sin@gen@@YAMM@Z				; gen::Sin
PUBLIC	?Cos@gen@@YAMM@Z				; gen::Cos
PUBLIC	?ACos@gen@@YAMM@Z				; gen::ACos
PUBLIC	?ATan@gen@@YAMMM@Z				; gen::ATan
PUBLIC	?InvSqrt@gen@@YAMM@Z				; gen::InvSqrt
PUBLIC	?SinCos@gen@@YAXMPAM0@Z				; gen::SinCos
PUBLIC	?IsZero@gen@@YA_NMM@Z				; gen::IsZero
PUBLIC	?AreEqual@gen@@YA_NMMI@Z			; gen::AreEqual
PUBLIC	??0CVector3@gen@@QAE@XZ				; gen::CVector3::CVector3
PUBLIC	??0CVector3@gen@@QAE@MMM@Z			; gen::CVector3::CVector3
PUBLIC	??0CVector3@gen@@QAE@ABV01@@Z			; gen::CVector3::CVector3
PUBLIC	??4CVector3@gen@@QAEAAV01@ABV01@@Z		; gen::CVector3::operator=
PUBLIC	?Set@CVector3@gen@@QAEXMMM@Z			; gen::CVector3::Set
PUBLIC	?IsZero@CVector3@gen@@QBE_NXZ			; gen::CVector3::IsZero
PUBLIC	??Ggen@@YA?AVCVector3@0@ABV10@0@Z		; gen::operator-
PUBLIC	??Ggen@@YA?AVCVector3@0@ABV10@@Z		; gen::operator-
PUBLIC	??Dgen@@YA?AVCVector3@0@ABV10@M@Z		; gen::operator*
PUBLIC	?Cross@gen@@YA?AVCVector3@1@ABV21@0@Z		; gen::Cross
PUBLIC	??0CMatrix4x4@gen@@QAE@XZ			; gen::CMatrix4x4::CMatrix4x4
PUBLIC	??0CMatrix4x4@gen@@QAE@MMMMMMMMMMMMMMMM@Z	; gen::CMatrix4x4::CMatrix4x4
PUBLIC	??0CMatrix4x4@gen@@QAE@PBM_N@Z			; gen::CMatrix4x4::CMatrix4x4
PUBLIC	??0CMatrix4x4@gen@@QAE@ABVCVector4@1@000_N@Z	; gen::CMatrix4x4::CMatrix4x4
PUBLIC	??0CMatrix4x4@gen@@QAE@ABVCVector3@1@000_N@Z	; gen::CMatrix4x4::CMatrix4x4
PUBLIC	??0CMatrix4x4@gen@@QAE@ABVCVector3@1@@Z		; gen::CMatrix4x4::CMatrix4x4
PUBLIC	??0CMatrix4x4@gen@@QAE@ABVCVector3@1@0W4ERotationOrder@1@0@Z ; gen::CMatrix4x4::CMatrix4x4
PUBLIC	??0CMatrix4x4@gen@@QAE@ABVCQuaternion@1@ABVCVector3@1@1@Z ; gen::CMatrix4x4::CMatrix4x4
PUBLIC	??0CMatrix4x4@gen@@QAE@ABVCVector3@1@M00@Z	; gen::CMatrix4x4::CMatrix4x4
PUBLIC	??0CMatrix4x4@gen@@QAE@ABVCMatrix2x2@1@ABVCVector2@1@@Z ; gen::CMatrix4x4::CMatrix4x4
PUBLIC	??0CMatrix4x4@gen@@QAE@ABVCMatrix3x3@1@ABVCVector3@1@@Z ; gen::CMatrix4x4::CMatrix4x4
PUBLIC	??0CMatrix4x4@gen@@QAE@ABV01@@Z			; gen::CMatrix4x4::CMatrix4x4
PUBLIC	??4CMatrix4x4@gen@@QAEAAV01@ABV01@@Z		; gen::CMatrix4x4::operator=
PUBLIC	?Set@CMatrix4x4@gen@@QAEXMMMMMMMMMMMMMMMM@Z	; gen::CMatrix4x4::Set
PUBLIC	?Set@CMatrix4x4@gen@@QAEXPBM_N@Z		; gen::CMatrix4x4::Set
PUBLIC	?GetRow@CMatrix4x4@gen@@QBE?AVCVector4@2@I@Z	; gen::CMatrix4x4::GetRow
PUBLIC	?GetColumn@CMatrix4x4@gen@@QBE?AVCVector4@2@I@Z	; gen::CMatrix4x4::GetColumn
PUBLIC	?SetRow@CMatrix4x4@gen@@QAEXIABVCVector4@2@@Z	; gen::CMatrix4x4::SetRow
PUBLIC	?SetRow@CMatrix4x4@gen@@QAEXIABVCVector3@2@@Z	; gen::CMatrix4x4::SetRow
PUBLIC	?SetColumn@CMatrix4x4@gen@@QAEXIABVCVector4@2@@Z ; gen::CMatrix4x4::SetColumn
PUBLIC	?SetColumn@CMatrix4x4@gen@@QAEXIABVCVector3@2@@Z ; gen::CMatrix4x4::SetColumn
PUBLIC	?SetRows@CMatrix4x4@gen@@QAEXABVCVector4@2@000@Z ; gen::CMatrix4x4::SetRows
PUBLIC	?SetRows@CMatrix4x4@gen@@QAEXABVCVector3@2@000@Z ; gen::CMatrix4x4::SetRows
PUBLIC	?SetColumns@CMatrix4x4@gen@@QAEXABVCVector4@2@000@Z ; gen::CMatrix4x4::SetColumns
PUBLIC	?SetColumns@CMatrix4x4@gen@@QAEXABVCVector3@2@000@Z ; gen::CMatrix4x4::SetColumns
PUBLIC	??ACMatrix4x4@gen@@QAEAAVCVector4@1@I@Z		; gen::CMatrix4x4::operator[]
PUBLIC	??ACMatrix4x4@gen@@QBEABVCVector4@1@I@Z		; gen::CMatrix4x4::operator[]
PUBLIC	?MakeAffineEuler@CMatrix4x4@gen@@QAEXABVCVector3@2@0W4ERotationOrder@2@0@Z ; gen::CMatrix4x4::MakeAffineEuler
PUBLIC	?MakeAffineQuaternion@CMatrix4x4@gen@@QAEXABVCQuaternion@2@ABVCVector3@2@1@Z ; gen::CMatrix4x4::MakeAffineQuaternion
PUBLIC	?MakeAffineAxisAngle@CMatrix4x4@gen@@QAEXABVCVector3@2@M00@Z ; gen::CMatrix4x4::MakeAffineAxisAngle
PUBLIC	?DecomposeAffineEuler@CMatrix4x4@gen@@QBEXPAVCVector3@2@00W4ERotationOrder@2@@Z ; gen::CMatrix4x4::DecomposeAffineEuler
PUBLIC	?DecomposeAffineQuaternion@CMatrix4x4@gen@@QBEXPAVCVector3@2@PAVCQuaternion@2@0@Z ; gen::CMatrix4x4::DecomposeAffineQuaternion
PUBLIC	?DecomposeAffineAxisAngle@CMatrix4x4@gen@@QBEXPAVCVector3@2@0PAM0@Z ; gen::CMatrix4x4::DecomposeAffineAxisAngle
PUBLIC	?GetPosition@CMatrix4x4@gen@@QBE?AVCVector3@2@XZ ; gen::CMatrix4x4::GetPosition
PUBLIC	?GetScale@CMatrix4x4@gen@@QBE?AVCVector3@2@XZ	; gen::CMatrix4x4::GetScale
PUBLIC	?SetScaleX@CMatrix4x4@gen@@QAEXM@Z		; gen::CMatrix4x4::SetScaleX
PUBLIC	?SetScaleY@CMatrix4x4@gen@@QAEXM@Z		; gen::CMatrix4x4::SetScaleY
PUBLIC	?SetScaleZ@CMatrix4x4@gen@@QAEXM@Z		; gen::CMatrix4x4::SetScaleZ
PUBLIC	?SetScale@CMatrix4x4@gen@@QAEXABVCVector3@2@@Z	; gen::CMatrix4x4::SetScale
PUBLIC	?SetScale@CMatrix4x4@gen@@QAEXM@Z		; gen::CMatrix4x4::SetScale
PUBLIC	?IsIdentity@CMatrix4x4@gen@@QBE_NXZ		; gen::CMatrix4x4::IsIdentity
PUBLIC	?IsOrthogonal3x3@CMatrix4x4@gen@@QBE_NXZ	; gen::CMatrix4x4::IsOrthogonal3x3
PUBLIC	?IsOrthonormal3x3@CMatrix4x4@gen@@QBE_NXZ	; gen::CMatrix4x4::IsOrthonormal3x3
PUBLIC	?Orthogonalise3x3@CMatrix4x4@gen@@QAEXABVCVector3@2@@Z ; gen::CMatrix4x4::Orthogonalise3x3
PUBLIC	?Transpose@CMatrix4x4@gen@@QAEXXZ		; gen::CMatrix4x4::Transpose
PUBLIC	?InvertRotTrans@CMatrix4x4@gen@@QAEXXZ		; gen::CMatrix4x4::InvertRotTrans
PUBLIC	?InvertRotTransScale@CMatrix4x4@gen@@QAEXXZ	; gen::CMatrix4x4::InvertRotTransScale
PUBLIC	?InvertAffine@CMatrix4x4@gen@@QAEXXZ		; gen::CMatrix4x4::InvertAffine
PUBLIC	?Cofactor@CMatrix4x4@gen@@QAEMII@Z		; gen::CMatrix4x4::Cofactor
PUBLIC	?Invert@CMatrix4x4@gen@@QAEXXZ			; gen::CMatrix4x4::Invert
PUBLIC	?MakeIdentity@CMatrix4x4@gen@@QAEXXZ		; gen::CMatrix4x4::MakeIdentity
PUBLIC	?MakeTranslation@CMatrix4x4@gen@@QAEXABVCVector3@2@@Z ; gen::CMatrix4x4::MakeTranslation
PUBLIC	?MakeRotationX@CMatrix4x4@gen@@QAEXM@Z		; gen::CMatrix4x4::MakeRotationX
PUBLIC	?MakeRotationY@CMatrix4x4@gen@@QAEXM@Z		; gen::CMatrix4x4::MakeRotationY
PUBLIC	?MakeRotationZ@CMatrix4x4@gen@@QAEXM@Z		; gen::CMatrix4x4::MakeRotationZ
PUBLIC	?MakeRotation@CMatrix4x4@gen@@QAEXVCVector3@2@W4ERotationOrder@2@@Z ; gen::CMatrix4x4::MakeRotation
PUBLIC	?MakeRotation@CMatrix4x4@gen@@QAEXABVCVector3@2@M@Z ; gen::CMatrix4x4::MakeRotation
PUBLIC	?MakeScaling@CMatrix4x4@gen@@QAEXABVCVector3@2@@Z ; gen::CMatrix4x4::MakeScaling
PUBLIC	?MakeScaling@CMatrix4x4@gen@@QAEXM@Z		; gen::CMatrix4x4::MakeScaling
PUBLIC	?FaceTarget@CMatrix4x4@gen@@QAEXABVCVector3@2@0_N@Z ; gen::CMatrix4x4::FaceTarget
PUBLIC	?FaceDirection@CMatrix4x4@gen@@QAEXABVCVector3@2@0_N@Z ; gen::CMatrix4x4::FaceDirection
PUBLIC	??XCMatrix4x4@gen@@QAEAAV01@M@Z			; gen::CMatrix4x4::operator*=
PUBLIC	??_0CMatrix4x4@gen@@QAEAAV01@M@Z		; gen::CMatrix4x4::operator/=
PUBLIC	?Transform@CMatrix4x4@gen@@QBE?AVCVector4@2@ABV32@@Z ; gen::CMatrix4x4::Transform
PUBLIC	?TransformVector@CMatrix4x4@gen@@QBE?AVCVector3@2@ABV32@@Z ; gen::CMatrix4x4::TransformVector
PUBLIC	?TransformPoint@CMatrix4x4@gen@@QBE?AVCVector3@2@ABV32@@Z ; gen::CMatrix4x4::TransformPoint
PUBLIC	??XCMatrix4x4@gen@@QAEAAV01@ABV01@@Z		; gen::CMatrix4x4::operator*=
PUBLIC	?MultiplyAffine@CMatrix4x4@gen@@QAEAAV12@ABV12@@Z ; gen::CMatrix4x4::MultiplyAffine
PUBLIC	??8gen@@YA_NABVCMatrix4x4@0@0@Z			; gen::operator==
PUBLIC	??9gen@@YA_NABVCMatrix4x4@0@0@Z			; gen::operator!=
PUBLIC	??Dgen@@YA?AVCMatrix4x4@0@MABV10@@Z		; gen::operator*
PUBLIC	??Dgen@@YA?AVCMatrix4x4@0@ABV10@M@Z		; gen::operator*
PUBLIC	??Kgen@@YA?AVCMatrix4x4@0@ABV10@M@Z		; gen::operator/
PUBLIC	??Dgen@@YA?AVCVector4@0@ABV10@ABVCMatrix4x4@0@@Z ; gen::operator*
PUBLIC	??Dgen@@YA?AVCVector4@0@ABVCMatrix4x4@0@ABV10@@Z ; gen::operator*
PUBLIC	??Dgen@@YA?AVCMatrix4x4@0@ABV10@0@Z		; gen::operator*
PUBLIC	?MultiplyAffine@gen@@YA?AVCMatrix4x4@1@ABV21@0@Z ; gen::MultiplyAffine
PUBLIC	?Orthogonalise3x3@gen@@YA?AVCMatrix4x4@1@ABV21@ABVCVector3@1@@Z ; gen::Orthogonalise3x3
PUBLIC	?Transpose@gen@@YA?AVCMatrix4x4@1@ABV21@@Z	; gen::Transpose
PUBLIC	?InverseRotTrans@gen@@YA?AVCMatrix4x4@1@ABV21@@Z ; gen::InverseRotTrans
PUBLIC	?InverseRotTransScale@gen@@YA?AVCMatrix4x4@1@ABV21@@Z ; gen::InverseRotTransScale
PUBLIC	?InverseAffine@gen@@YA?AVCMatrix4x4@1@ABV21@@Z	; gen::InverseAffine
PUBLIC	?Cofactor@gen@@YAMABVCMatrix4x4@1@II@Z		; gen::Cofactor
PUBLIC	?Inverse@gen@@YA?AVCMatrix4x4@1@ABV21@@Z	; gen::Inverse
PUBLIC	?MatrixIdentity@gen@@YA?AVCMatrix4x4@1@XZ	; gen::MatrixIdentity
PUBLIC	?MatrixTranslation@gen@@YA?AVCMatrix4x4@1@ABVCVector3@1@@Z ; gen::MatrixTranslation
PUBLIC	?MatrixRotationX@gen@@YA?AVCMatrix4x4@1@M@Z	; gen::MatrixRotationX
PUBLIC	?MatrixRotationY@gen@@YA?AVCMatrix4x4@1@M@Z	; gen::MatrixRotationY
PUBLIC	?MatrixRotationZ@gen@@YA?AVCMatrix4x4@1@M@Z	; gen::MatrixRotationZ
PUBLIC	?MatrixRotation@gen@@YA?AVCMatrix4x4@1@VCVector3@1@W4ERotationOrder@1@@Z ; gen::MatrixRotation
PUBLIC	?MatrixRotation@gen@@YA?AVCMatrix4x4@1@ABVCVector3@1@M@Z ; gen::MatrixRotation
PUBLIC	?MatrixScaling@gen@@YA?AVCMatrix4x4@1@ABVCVector3@1@@Z ; gen::MatrixScaling
PUBLIC	?MatrixScaling@gen@@YA?AVCMatrix4x4@1@M@Z	; gen::MatrixScaling
PUBLIC	?MatrixFaceTarget@gen@@YA?AVCMatrix4x4@1@ABVCVector3@1@00_N@Z ; gen::MatrixFaceTarget
PUBLIC	?MatrixFaceDirection@gen@@YA?AVCMatrix4x4@1@ABVCVector3@1@00_N@Z ; gen::MatrixFaceDirection
PUBLIC	??0CVector4@gen@@QAE@XZ				; gen::CVector4::CVector4
PUBLIC	??0CVector4@gen@@QAE@MMMM@Z			; gen::CVector4::CVector4
PUBLIC	??0CVector4@gen@@QAE@PBM@Z			; gen::CVector4::CVector4
PUBLIC	??0CVector4@gen@@QAE@ABV01@@Z			; gen::CVector4::CVector4
PUBLIC	??ACVector4@gen@@QAEAAMI@Z			; gen::CVector4::operator[]
PUBLIC	??ACVector4@gen@@QBEABMI@Z			; gen::CVector4::operator[]
PUBLIC	??$construct@PADAAPAD@?$_Wrap_alloc@V?$allocator@D@std@@@std@@QAEXPAPADAAPAD@Z ; std::_Wrap_alloc<std::allocator<char> >::construct<char *,char * &>
PUBLIC	??$destroy@PAD@?$_Wrap_alloc@V?$allocator@D@std@@@std@@QAEXPAPAD@Z ; std::_Wrap_alloc<std::allocator<char> >::destroy<char *>
PUBLIC	??$addressof@D@std@@YAPADAAD@Z			; std::addressof<char>
PUBLIC	??$_Allocate@D@std@@YAPADIPAD@Z			; std::_Allocate<char>
PUBLIC	??$forward@AAPAD@std@@YAAAPADAAPAD@Z		; std::forward<char * &>
PUBLIC	??$construct@PADAAPAD@?$allocator_traits@V?$allocator@D@std@@@std@@SAXAAV?$allocator@D@1@PAPADAAPAD@Z ; std::allocator_traits<std::allocator<char> >::construct<char *,char * &>
PUBLIC	??$destroy@PAD@?$allocator_traits@V?$allocator@D@std@@@std@@SAXAAV?$allocator@D@1@PAPAD@Z ; std::allocator_traits<std::allocator<char> >::destroy<char *>
PUBLIC	??$construct@PADAAPAD@?$allocator@D@std@@QAEXPAPADAAPAD@Z ; std::allocator<char>::construct<char *,char * &>
PUBLIC	??$destroy@PAD@?$allocator@D@std@@QAEXPAPAD@Z	; std::allocator<char>::destroy<char *>
PUBLIC	??_C@_00CNPNBAHC@?$AA@				; `string'
PUBLIC	??_7error_category@std@@6B@			; std::error_category::`vftable'
PUBLIC	??_7_Generic_error_category@std@@6B@		; std::_Generic_error_category::`vftable'
PUBLIC	??_C@_07DCLBNMLN@generic?$AA@			; `string'
PUBLIC	??_C@_0O@BFJCFAAK@unknown?5error?$AA@		; `string'
PUBLIC	??_7_Iostream_error_category@std@@6B@		; std::_Iostream_error_category::`vftable'
PUBLIC	??_C@_08LLGCOLLL@iostream?$AA@			; `string'
PUBLIC	??_C@_0BG@PADBLCHM@iostream?5stream?5error?$AA@	; `string'
PUBLIC	??_7_System_error_category@std@@6B@		; std::_System_error_category::`vftable'
PUBLIC	??_C@_06FHFOAHML@system?$AA@			; `string'
PUBLIC	?_Generic_object@?$_Error_objects@H@std@@2V_Generic_error_category@2@A ; std::_Error_objects<int>::_Generic_object
PUBLIC	?_Iostream_object@?$_Error_objects@H@std@@2V_Iostream_error_category@2@A ; std::_Error_objects<int>::_Iostream_object
PUBLIC	?_System_object@?$_Error_objects@H@std@@2V_System_error_category@2@A ; std::_Error_objects<int>::_System_object
PUBLIC	?id@?$num_put@DV?$back_insert_iterator@V?$basic_string@DU?$char_traits@D@std@@V?$allocator@D@2@@std@@@std@@@std@@2V0locale@2@A ; std::num_put<char,std::back_insert_iterator<std::basic_string<char,std::char_traits<char>,std::allocator<char> > > >::id
PUBLIC	?id@?$num_put@_WV?$back_insert_iterator@V?$basic_string@_WU?$char_traits@_W@std@@V?$allocator@_W@2@@std@@@std@@@std@@2V0locale@2@A ; std::num_put<wchar_t,std::back_insert_iterator<std::basic_string<wchar_t,std::char_traits<wchar_t>,std::allocator<wchar_t> > > >::id
PUBLIC	??_C@_0CB@NBMGHEOM@Visual?5C?$CL?$CL?58?40?5?$CI2005?$CJ?5or?5greater@ ; `string'
PUBLIC	??_C@_01KICIPPFI@?2?$AA@			; `string'
PUBLIC	??_C@_01EEMJAFIK@?6?$AA@			; `string'
PUBLIC	??_C@_0BE@HBKCGNOA@Unhandled?5Exception?$AA@	; `string'
PUBLIC	?kIdentity@CMatrix4x4@gen@@2V12@B		; gen::CMatrix4x4::kIdentity
PUBLIC	__TI1?AVCFatalException@gen@@
PUBLIC	__CTA1?AVCFatalException@gen@@
PUBLIC	??_R0?AVCFatalException@gen@@@8			; gen::CFatalException `RTTI Type Descriptor'
PUBLIC	__CT??_R0?AVCFatalException@gen@@@8??0CFatalException@gen@@QAE@ABV01@@Z76
PUBLIC	??_C@_0BL@PHCLKOGI@Import?2Math?2CMatrix4x4?4cpp?$AA@ ; `string'
PUBLIC	??_C@_0BA@EJDDFENM@Singular?5matrix?$AA@	; `string'
PUBLIC	??_C@_0BC@DBAKKFEN@Invalid?5parameter?$AA@	; `string'
PUBLIC	??_C@_0CG@HIGNFPPJ@gen?3?3CMatrix4x4?3?3DecomposeAffine@ ; `string'
PUBLIC	??_C@_0CC@BIGHOAJP@gen?3?3CMatrix4x4?3?3Orthogonalise3x@ ; `string'
PUBLIC	??_C@_0BG@EKHHHFFK@gen?3?3Orthogonalise3x3?$AA@	; `string'
PUBLIC	??_C@_0CF@KNEDKMPM@gen?3?3CMatrix4x4?3?3InvertRotTransS@ ; `string'
PUBLIC	??_C@_0BK@PCEHJOFI@gen?3?3InverseRotTransScale?$AA@ ; `string'
PUBLIC	??_C@_0BD@PPGPBHLN@gen?3?3InverseAffine?$AA@	; `string'
PUBLIC	??_C@_0N@BLGPECID@gen?3?3Inverse?$AA@		; `string'
PUBLIC	??_C@_0BO@EDHCIBNI@gen?3?3CMatrix4x4?3?3MakeRotation?$AA@ ; `string'
PUBLIC	??_C@_0BB@OPALDBID@Zero?5length?5axis?$AA@	; `string'
PUBLIC	??_C@_0BE@LMIKLAKG@gen?3?3MatrixRotation?$AA@	; `string'
PUBLIC	?id@?$numpunct@D@std@@2V0locale@2@A		; std::numpunct<char>::id
PUBLIC	?id@?$numpunct@_W@std@@2V0locale@2@A		; std::numpunct<wchar_t>::id
PUBLIC	??_C@_0BA@JFNIOLAK@string?5too?5long?$AA@	; `string'
PUBLIC	??_C@_0BI@CFPLBAOH@invalid?5string?5position?$AA@ ; `string'
PUBLIC	??_R4error_category@std@@6B@			; std::error_category::`RTTI Complete Object Locator'
PUBLIC	??_R0?AVerror_category@std@@@8			; std::error_category `RTTI Type Descriptor'
PUBLIC	??_R3error_category@std@@8			; std::error_category::`RTTI Class Hierarchy Descriptor'
PUBLIC	??_R2error_category@std@@8			; std::error_category::`RTTI Base Class Array'
PUBLIC	??_R1A@?0A@EA@error_category@std@@8		; std::error_category::`RTTI Base Class Descriptor at (0,-1,0,64)'
PUBLIC	??_R4_Generic_error_category@std@@6B@		; std::_Generic_error_category::`RTTI Complete Object Locator'
PUBLIC	??_R0?AV_Generic_error_category@std@@@8		; std::_Generic_error_category `RTTI Type Descriptor'
PUBLIC	??_R3_Generic_error_category@std@@8		; std::_Generic_error_category::`RTTI Class Hierarchy Descriptor'
PUBLIC	??_R2_Generic_error_category@std@@8		; std::_Generic_error_category::`RTTI Base Class Array'
PUBLIC	??_R1A@?0A@EA@_Generic_error_category@std@@8	; std::_Generic_error_category::`RTTI Base Class Descriptor at (0,-1,0,64)'
PUBLIC	??_R4_Iostream_error_category@std@@6B@		; std::_Iostream_error_category::`RTTI Complete Object Locator'
PUBLIC	??_R0?AV_Iostream_error_category@std@@@8	; std::_Iostream_error_category `RTTI Type Descriptor'
PUBLIC	??_R3_Iostream_error_category@std@@8		; std::_Iostream_error_category::`RTTI Class Hierarchy Descriptor'
PUBLIC	??_R2_Iostream_error_category@std@@8		; std::_Iostream_error_category::`RTTI Base Class Array'
PUBLIC	??_R1A@?0A@EA@_Iostream_error_category@std@@8	; std::_Iostream_error_category::`RTTI Base Class Descriptor at (0,-1,0,64)'
PUBLIC	??_R4_System_error_category@std@@6B@		; std::_System_error_category::`RTTI Complete Object Locator'
PUBLIC	??_R0?AV_System_error_category@std@@@8		; std::_System_error_category `RTTI Type Descriptor'
PUBLIC	??_R3_System_error_category@std@@8		; std::_System_error_category::`RTTI Class Hierarchy Descriptor'
PUBLIC	??_R2_System_error_category@std@@8		; std::_System_error_category::`RTTI Base Class Array'
PUBLIC	??_R1A@?0A@EA@_System_error_category@std@@8	; std::_System_error_category::`RTTI Base Class Descriptor at (0,-1,0,64)'
PUBLIC	__real@00000000
PUBLIC	__real@350637bd
PUBLIC	__real@3f000000
PUBLIC	__real@3f800000
PUBLIC	__real@40000000
PUBLIC	__real@40490fdb
PUBLIC	__xmm@7fffffffffffffff7fffffffffffffff
PUBLIC	__xmm@80000000800000008000000080000000
EXTRN	__purecall:PROC
EXTRN	??2@YAPAXI@Z:PROC				; operator new
EXTRN	??3@YAXPAX@Z:PROC				; operator delete
EXTRN	_atexit:PROC
EXTRN	__hypot:PROC
EXTRN	_memmove:PROC
EXTRN	?_Xbad_alloc@std@@YAXXZ:PROC			; std::_Xbad_alloc
EXTRN	?_Xlength_error@std@@YAXPBD@Z:PROC		; std::_Xlength_error
EXTRN	?_Xout_of_range@std@@YAXPBD@Z:PROC		; std::_Xout_of_range
EXTRN	??_Eerror_category@std@@UAEPAXI@Z:PROC		; std::error_category::`vector deleting destructor'
EXTRN	?_Syserror_map@std@@YAPBDH@Z:PROC		; std::_Syserror_map
EXTRN	?_Winerror_map@std@@YAPBDH@Z:PROC		; std::_Winerror_map
EXTRN	??_E_Generic_error_category@std@@UAEPAXI@Z:PROC	; std::_Generic_error_category::`vector deleting destructor'
EXTRN	??_E_Iostream_error_category@std@@UAEPAXI@Z:PROC ; std::_Iostream_error_category::`vector deleting destructor'
EXTRN	??_E_System_error_category@std@@UAEPAXI@Z:PROC	; std::_System_error_category::`vector deleting destructor'
EXTRN	?AppendToCallStack@CFatalException@gen@@QAEXPBD0_N@Z:PROC ; gen::CFatalException::AppendToCallStack
EXTRN	?Normalise@CVector3@gen@@QAEXXZ:PROC		; gen::CVector3::Normalise
EXTRN	?Normalise@gen@@YA?AVCVector3@1@ABV21@@Z:PROC	; gen::Normalise
EXTRN	@__security_check_cookie@4:PROC
EXTRN	__CIatan2:PROC
EXTRN	__CxxThrowException@8:PROC
EXTRN	___CxxFrameHandler3:PROC
EXTRN	__libm_sse2_acos_precise:PROC
EXTRN	__libm_sse2_cos_precise:PROC
EXTRN	__libm_sse2_sin_precise:PROC
EXTRN	__libm_sse2_sqrt_precise:PROC
EXTRN	_memcpy:PROC
EXTRN	??_7type_info@@6B@:QWORD			; type_info::`vftable'
EXTRN	?kZAxis@CVector3@gen@@2V12@B:BYTE		; gen::CVector3::kZAxis
EXTRN	___security_cookie:DWORD
EXTRN	__fltused:DWORD
_BSS	SEGMENT
_piecewise_construct DB 01H DUP (?)
_allocator_arg DB 01H DUP (?)
_BSS	ENDS
;	COMDAT ?id@?$num_put@DV?$back_insert_iterator@V?$basic_string@DU?$char_traits@D@std@@V?$allocator@D@2@@std@@@std@@@std@@2V0locale@2@A
_BSS	SEGMENT
?id@?$num_put@DV?$back_insert_iterator@V?$basic_string@DU?$char_traits@D@std@@V?$allocator@D@2@@std@@@std@@@std@@2V0locale@2@A DD 01H DUP (?) ; std::num_put<char,std::back_insert_iterator<std::basic_string<char,std::char_traits<char>,std::allocator<char> > > >::id
_BSS	ENDS
;	COMDAT ?id@?$num_put@_WV?$back_insert_iterator@V?$basic_string@_WU?$char_traits@_W@std@@V?$allocator@_W@2@@std@@@std@@@std@@2V0locale@2@A
_BSS	SEGMENT
?id@?$num_put@_WV?$back_insert_iterator@V?$basic_string@_WU?$char_traits@_W@std@@V?$allocator@_W@2@@std@@@std@@@std@@2V0locale@2@A DD 01H DUP (?) ; std::num_put<wchar_t,std::back_insert_iterator<std::basic_string<wchar_t,std::char_traits<wchar_t>,std::allocator<wchar_t> > > >::id
_BSS	ENDS
;	COMDAT ?id@?$numpunct@D@std@@2V0locale@2@A
_BSS	SEGMENT
?id@?$numpunct@D@std@@2V0locale@2@A DD 01H DUP (?)	; std::numpunct<char>::id
_BSS	ENDS
;	COMDAT ?id@?$numpunct@_W@std@@2V0locale@2@A
_BSS	SEGMENT
?id@?$numpunct@_W@std@@2V0locale@2@A DD 01H DUP (?)	; std::numpunct<wchar_t>::id
_BSS	ENDS
CRT$XCU	SEGMENT
_ksCompiler$initializer$ DD FLAT:??__EksCompiler@gen@@YAXXZ
CRT$XCU	ENDS
;	COMDAT __xmm@80000000800000008000000080000000
CONST	SEGMENT
__xmm@80000000800000008000000080000000 DB 00H, 00H, 00H, 080H, 00H, 00H, 00H
	DB	080H, 00H, 00H, 00H, 080H, 00H, 00H, 00H, 080H
CONST	ENDS
;	COMDAT __xmm@7fffffffffffffff7fffffffffffffff
CONST	SEGMENT
__xmm@7fffffffffffffff7fffffffffffffff DB 0ffH, 0ffH, 0ffH, 0ffH, 0ffH, 0ffH
	DB	0ffH, 07fH, 0ffH, 0ffH, 0ffH, 0ffH, 0ffH, 0ffH, 0ffH, 07fH
CONST	ENDS
;	COMDAT __real@40490fdb
CONST	SEGMENT
__real@40490fdb DD 040490fdbr			; 3.14159
CONST	ENDS
;	COMDAT __real@40000000
CONST	SEGMENT
__real@40000000 DD 040000000r			; 2
CONST	ENDS
;	COMDAT __real@3f800000
CONST	SEGMENT
__real@3f800000 DD 03f800000r			; 1
CONST	ENDS
;	COMDAT __real@3f000000
CONST	SEGMENT
__real@3f000000 DD 03f000000r			; 0.5
CONST	ENDS
;	COMDAT __real@350637bd
CONST	SEGMENT
__real@350637bd DD 0350637bdr			; 5e-007
CONST	ENDS
;	COMDAT __real@00000000
CONST	SEGMENT
__real@00000000 DD 000000000r			; 0
CONST	ENDS
;	COMDAT ??_R1A@?0A@EA@_System_error_category@std@@8
rdata$r	SEGMENT
??_R1A@?0A@EA@_System_error_category@std@@8 DD FLAT:??_R0?AV_System_error_category@std@@@8 ; std::_System_error_category::`RTTI Base Class Descriptor at (0,-1,0,64)'
	DD	02H
	DD	00H
	DD	0ffffffffH
	DD	00H
	DD	040H
	DD	FLAT:??_R3_System_error_category@std@@8
rdata$r	ENDS
;	COMDAT ??_R2_System_error_category@std@@8
rdata$r	SEGMENT
??_R2_System_error_category@std@@8 DD FLAT:??_R1A@?0A@EA@_System_error_category@std@@8 ; std::_System_error_category::`RTTI Base Class Array'
	DD	FLAT:??_R1A@?0A@EA@_Generic_error_category@std@@8
	DD	FLAT:??_R1A@?0A@EA@error_category@std@@8
rdata$r	ENDS
;	COMDAT ??_R3_System_error_category@std@@8
rdata$r	SEGMENT
??_R3_System_error_category@std@@8 DD 00H		; std::_System_error_category::`RTTI Class Hierarchy Descriptor'
	DD	00H
	DD	03H
	DD	FLAT:??_R2_System_error_category@std@@8
rdata$r	ENDS
;	COMDAT ??_R0?AV_System_error_category@std@@@8
data$r	SEGMENT
??_R0?AV_System_error_category@std@@@8 DD FLAT:??_7type_info@@6B@ ; std::_System_error_category `RTTI Type Descriptor'
	DD	00H
	DB	'.?AV_System_error_category@std@@', 00H
data$r	ENDS
;	COMDAT ??_R4_System_error_category@std@@6B@
rdata$r	SEGMENT
??_R4_System_error_category@std@@6B@ DD 00H		; std::_System_error_category::`RTTI Complete Object Locator'
	DD	00H
	DD	00H
	DD	FLAT:??_R0?AV_System_error_category@std@@@8
	DD	FLAT:??_R3_System_error_category@std@@8
rdata$r	ENDS
;	COMDAT ??_R1A@?0A@EA@_Iostream_error_category@std@@8
rdata$r	SEGMENT
??_R1A@?0A@EA@_Iostream_error_category@std@@8 DD FLAT:??_R0?AV_Iostream_error_category@std@@@8 ; std::_Iostream_error_category::`RTTI Base Class Descriptor at (0,-1,0,64)'
	DD	02H
	DD	00H
	DD	0ffffffffH
	DD	00H
	DD	040H
	DD	FLAT:??_R3_Iostream_error_category@std@@8
rdata$r	ENDS
;	COMDAT ??_R2_Iostream_error_category@std@@8
rdata$r	SEGMENT
??_R2_Iostream_error_category@std@@8 DD FLAT:??_R1A@?0A@EA@_Iostream_error_category@std@@8 ; std::_Iostream_error_category::`RTTI Base Class Array'
	DD	FLAT:??_R1A@?0A@EA@_Generic_error_category@std@@8
	DD	FLAT:??_R1A@?0A@EA@error_category@std@@8
rdata$r	ENDS
;	COMDAT ??_R3_Iostream_error_category@std@@8
rdata$r	SEGMENT
??_R3_Iostream_error_category@std@@8 DD 00H		; std::_Iostream_error_category::`RTTI Class Hierarchy Descriptor'
	DD	00H
	DD	03H
	DD	FLAT:??_R2_Iostream_error_category@std@@8
rdata$r	ENDS
;	COMDAT ??_R0?AV_Iostream_error_category@std@@@8
data$r	SEGMENT
??_R0?AV_Iostream_error_category@std@@@8 DD FLAT:??_7type_info@@6B@ ; std::_Iostream_error_category `RTTI Type Descriptor'
	DD	00H
	DB	'.?AV_Iostream_error_category@std@@', 00H
data$r	ENDS
;	COMDAT ??_R4_Iostream_error_category@std@@6B@
rdata$r	SEGMENT
??_R4_Iostream_error_category@std@@6B@ DD 00H		; std::_Iostream_error_category::`RTTI Complete Object Locator'
	DD	00H
	DD	00H
	DD	FLAT:??_R0?AV_Iostream_error_category@std@@@8
	DD	FLAT:??_R3_Iostream_error_category@std@@8
rdata$r	ENDS
;	COMDAT ??_R1A@?0A@EA@_Generic_error_category@std@@8
rdata$r	SEGMENT
??_R1A@?0A@EA@_Generic_error_category@std@@8 DD FLAT:??_R0?AV_Generic_error_category@std@@@8 ; std::_Generic_error_category::`RTTI Base Class Descriptor at (0,-1,0,64)'
	DD	01H
	DD	00H
	DD	0ffffffffH
	DD	00H
	DD	040H
	DD	FLAT:??_R3_Generic_error_category@std@@8
rdata$r	ENDS
;	COMDAT ??_R2_Generic_error_category@std@@8
rdata$r	SEGMENT
??_R2_Generic_error_category@std@@8 DD FLAT:??_R1A@?0A@EA@_Generic_error_category@std@@8 ; std::_Generic_error_category::`RTTI Base Class Array'
	DD	FLAT:??_R1A@?0A@EA@error_category@std@@8
rdata$r	ENDS
;	COMDAT ??_R3_Generic_error_category@std@@8
rdata$r	SEGMENT
??_R3_Generic_error_category@std@@8 DD 00H		; std::_Generic_error_category::`RTTI Class Hierarchy Descriptor'
	DD	00H
	DD	02H
	DD	FLAT:??_R2_Generic_error_category@std@@8
rdata$r	ENDS
;	COMDAT ??_R0?AV_Generic_error_category@std@@@8
data$r	SEGMENT
??_R0?AV_Generic_error_category@std@@@8 DD FLAT:??_7type_info@@6B@ ; std::_Generic_error_category `RTTI Type Descriptor'
	DD	00H
	DB	'.?AV_Generic_error_category@std@@', 00H
data$r	ENDS
;	COMDAT ??_R4_Generic_error_category@std@@6B@
rdata$r	SEGMENT
??_R4_Generic_error_category@std@@6B@ DD 00H		; std::_Generic_error_category::`RTTI Complete Object Locator'
	DD	00H
	DD	00H
	DD	FLAT:??_R0?AV_Generic_error_category@std@@@8
	DD	FLAT:??_R3_Generic_error_category@std@@8
rdata$r	ENDS
;	COMDAT ??_R1A@?0A@EA@error_category@std@@8
rdata$r	SEGMENT
??_R1A@?0A@EA@error_category@std@@8 DD FLAT:??_R0?AVerror_category@std@@@8 ; std::error_category::`RTTI Base Class Descriptor at (0,-1,0,64)'
	DD	00H
	DD	00H
	DD	0ffffffffH
	DD	00H
	DD	040H
	DD	FLAT:??_R3error_category@std@@8
rdata$r	ENDS
;	COMDAT ??_R2error_category@std@@8
rdata$r	SEGMENT
??_R2error_category@std@@8 DD FLAT:??_R1A@?0A@EA@error_category@std@@8 ; std::error_category::`RTTI Base Class Array'
rdata$r	ENDS
;	COMDAT ??_R3error_category@std@@8
rdata$r	SEGMENT
??_R3error_category@std@@8 DD 00H			; std::error_category::`RTTI Class Hierarchy Descriptor'
	DD	00H
	DD	01H
	DD	FLAT:??_R2error_category@std@@8
rdata$r	ENDS
;	COMDAT ??_R0?AVerror_category@std@@@8
data$r	SEGMENT
??_R0?AVerror_category@std@@@8 DD FLAT:??_7type_info@@6B@ ; std::error_category `RTTI Type Descriptor'
	DD	00H
	DB	'.?AVerror_category@std@@', 00H
data$r	ENDS
;	COMDAT ??_R4error_category@std@@6B@
rdata$r	SEGMENT
??_R4error_category@std@@6B@ DD 00H			; std::error_category::`RTTI Complete Object Locator'
	DD	00H
	DD	00H
	DD	FLAT:??_R0?AVerror_category@std@@@8
	DD	FLAT:??_R3error_category@std@@8
rdata$r	ENDS
;	COMDAT ??_C@_0BI@CFPLBAOH@invalid?5string?5position?$AA@
CONST	SEGMENT
??_C@_0BI@CFPLBAOH@invalid?5string?5position?$AA@ DB 'invalid string posi'
	DB	'tion', 00H					; `string'
CONST	ENDS
;	COMDAT ??_C@_0BA@JFNIOLAK@string?5too?5long?$AA@
CONST	SEGMENT
??_C@_0BA@JFNIOLAK@string?5too?5long?$AA@ DB 'string too long', 00H ; `string'
CONST	ENDS
;	COMDAT ??_C@_0BE@LMIKLAKG@gen?3?3MatrixRotation?$AA@
CONST	SEGMENT
??_C@_0BE@LMIKLAKG@gen?3?3MatrixRotation?$AA@ DB 'gen::MatrixRotation', 00H ; `string'
CONST	ENDS
;	COMDAT ??_C@_0BB@OPALDBID@Zero?5length?5axis?$AA@
CONST	SEGMENT
??_C@_0BB@OPALDBID@Zero?5length?5axis?$AA@ DB 'Zero length axis', 00H ; `string'
CONST	ENDS
;	COMDAT ??_C@_0BO@EDHCIBNI@gen?3?3CMatrix4x4?3?3MakeRotation?$AA@
CONST	SEGMENT
??_C@_0BO@EDHCIBNI@gen?3?3CMatrix4x4?3?3MakeRotation?$AA@ DB 'gen::CMatri'
	DB	'x4x4::MakeRotation', 00H			; `string'
CONST	ENDS
;	COMDAT ??_C@_0N@BLGPECID@gen?3?3Inverse?$AA@
CONST	SEGMENT
??_C@_0N@BLGPECID@gen?3?3Inverse?$AA@ DB 'gen::Inverse', 00H ; `string'
CONST	ENDS
;	COMDAT ??_C@_0BD@PPGPBHLN@gen?3?3InverseAffine?$AA@
CONST	SEGMENT
??_C@_0BD@PPGPBHLN@gen?3?3InverseAffine?$AA@ DB 'gen::InverseAffine', 00H ; `string'
CONST	ENDS
;	COMDAT ??_C@_0BK@PCEHJOFI@gen?3?3InverseRotTransScale?$AA@
CONST	SEGMENT
??_C@_0BK@PCEHJOFI@gen?3?3InverseRotTransScale?$AA@ DB 'gen::InverseRotTr'
	DB	'ansScale', 00H				; `string'
CONST	ENDS
;	COMDAT ??_C@_0CF@KNEDKMPM@gen?3?3CMatrix4x4?3?3InvertRotTransS@
CONST	SEGMENT
??_C@_0CF@KNEDKMPM@gen?3?3CMatrix4x4?3?3InvertRotTransS@ DB 'gen::CMatrix'
	DB	'4x4::InvertRotTransScale', 00H		; `string'
CONST	ENDS
;	COMDAT ??_C@_0BG@EKHHHFFK@gen?3?3Orthogonalise3x3?$AA@
CONST	SEGMENT
??_C@_0BG@EKHHHFFK@gen?3?3Orthogonalise3x3?$AA@ DB 'gen::Orthogonalise3x3'
	DB	00H						; `string'
CONST	ENDS
;	COMDAT ??_C@_0CC@BIGHOAJP@gen?3?3CMatrix4x4?3?3Orthogonalise3x@
CONST	SEGMENT
??_C@_0CC@BIGHOAJP@gen?3?3CMatrix4x4?3?3Orthogonalise3x@ DB 'gen::CMatrix'
	DB	'4x4::Orthogonalise3x3', 00H			; `string'
CONST	ENDS
;	COMDAT ??_C@_0CG@HIGNFPPJ@gen?3?3CMatrix4x4?3?3DecomposeAffine@
CONST	SEGMENT
??_C@_0CG@HIGNFPPJ@gen?3?3CMatrix4x4?3?3DecomposeAffine@ DB 'gen::CMatrix'
	DB	'4x4::DecomposeAffineEuler', 00H		; `string'
CONST	ENDS
;	COMDAT ??_C@_0BC@DBAKKFEN@Invalid?5parameter?$AA@
CONST	SEGMENT
??_C@_0BC@DBAKKFEN@Invalid?5parameter?$AA@ DB 'Invalid parameter', 00H ; `string'
CONST	ENDS
;	COMDAT ??_C@_0BA@EJDDFENM@Singular?5matrix?$AA@
CONST	SEGMENT
??_C@_0BA@EJDDFENM@Singular?5matrix?$AA@ DB 'Singular matrix', 00H ; `string'
CONST	ENDS
;	COMDAT ??_C@_0BL@PHCLKOGI@Import?2Math?2CMatrix4x4?4cpp?$AA@
CONST	SEGMENT
??_C@_0BL@PHCLKOGI@Import?2Math?2CMatrix4x4?4cpp?$AA@ DB 'Import\Math\CMa'
	DB	'trix4x4.cpp', 00H				; `string'
CONST	ENDS
;	COMDAT __CT??_R0?AVCFatalException@gen@@@8??0CFatalException@gen@@QAE@ABV01@@Z76
xdata$x	SEGMENT
__CT??_R0?AVCFatalException@gen@@@8??0CFatalException@gen@@QAE@ABV01@@Z76 DD 00H
	DD	FLAT:??_R0?AVCFatalException@gen@@@8
	DD	00H
	DD	0ffffffffH
	ORG $+4
	DD	04cH
	DD	FLAT:??0CFatalException@gen@@QAE@ABV01@@Z
xdata$x	ENDS
;	COMDAT ??_R0?AVCFatalException@gen@@@8
data$r	SEGMENT
??_R0?AVCFatalException@gen@@@8 DD FLAT:??_7type_info@@6B@ ; gen::CFatalException `RTTI Type Descriptor'
	DD	00H
	DB	'.?AVCFatalException@gen@@', 00H
data$r	ENDS
;	COMDAT __CTA1?AVCFatalException@gen@@
xdata$x	SEGMENT
__CTA1?AVCFatalException@gen@@ DD 01H
	DD	FLAT:__CT??_R0?AVCFatalException@gen@@@8??0CFatalException@gen@@QAE@ABV01@@Z76
xdata$x	ENDS
;	COMDAT __TI1?AVCFatalException@gen@@
xdata$x	SEGMENT
__TI1?AVCFatalException@gen@@ DD 00H
	DD	FLAT:??1CFatalException@gen@@QAE@XZ
	DD	00H
	DD	FLAT:__CTA1?AVCFatalException@gen@@
xdata$x	ENDS
;	COMDAT ??_C@_0BE@HBKCGNOA@Unhandled?5Exception?$AA@
CONST	SEGMENT
??_C@_0BE@HBKCGNOA@Unhandled?5Exception?$AA@ DB 'Unhandled Exception', 00H ; `string'
CONST	ENDS
;	COMDAT ??_C@_01EEMJAFIK@?6?$AA@
CONST	SEGMENT
??_C@_01EEMJAFIK@?6?$AA@ DB 0aH, 00H			; `string'
CONST	ENDS
;	COMDAT ??_C@_01KICIPPFI@?2?$AA@
CONST	SEGMENT
??_C@_01KICIPPFI@?2?$AA@ DB '\', 00H			; `string'
CONST	ENDS
;	COMDAT ??_C@_0CB@NBMGHEOM@Visual?5C?$CL?$CL?58?40?5?$CI2005?$CJ?5or?5greater@
CONST	SEGMENT
??_C@_0CB@NBMGHEOM@Visual?5C?$CL?$CL?58?40?5?$CI2005?$CJ?5or?5greater@ DB 'V'
	DB	'isual C++ 8.0 (2005) or greater', 00H	; `string'
CONST	ENDS
_DATA	SEGMENT
_ksCompiler DB	00H
	DB	15 DUP(00H)
	DD	00H
	DD	0fH
_ksPathSeparator DB 00H
	DB	15 DUP(00H)
	DD	00H
	DD	0fH
_ksNewline DB	00H
	DB	15 DUP(00H)
	DD	00H
	DD	0fH
?kIdentity@CMatrix4x4@gen@@2V12@B DD 03f800000r	; 1	; gen::CMatrix4x4::kIdentity
	DD	000000000r			; 0
	DD	000000000r			; 0
	DD	000000000r			; 0
	DD	000000000r			; 0
	DD	03f800000r			; 1
	DD	000000000r			; 0
	DD	000000000r			; 0
	DD	000000000r			; 0
	DD	000000000r			; 0
	DD	03f800000r			; 1
	DD	000000000r			; 0
	DD	000000000r			; 0
	DD	000000000r			; 0
	DD	000000000r			; 0
	DD	03f800000r			; 1
_DATA	ENDS
;	COMDAT ?_System_object@?$_Error_objects@H@std@@2V_System_error_category@2@A
_DATA	SEGMENT
?_System_object@?$_Error_objects@H@std@@2V_System_error_category@2@A DD FLAT:??_7_System_error_category@std@@6B@ ; std::_Error_objects<int>::_System_object
_DATA	ENDS
;	COMDAT ?_Iostream_object@?$_Error_objects@H@std@@2V_Iostream_error_category@2@A
_DATA	SEGMENT
?_Iostream_object@?$_Error_objects@H@std@@2V_Iostream_error_category@2@A DD FLAT:??_7_Iostream_error_category@std@@6B@ ; std::_Error_objects<int>::_Iostream_object
_DATA	ENDS
;	COMDAT ?_Generic_object@?$_Error_objects@H@std@@2V_Generic_error_category@2@A
_DATA	SEGMENT
?_Generic_object@?$_Error_objects@H@std@@2V_Generic_error_category@2@A DD FLAT:??_7_Generic_error_category@std@@6B@ ; std::_Error_objects<int>::_Generic_object
_DATA	ENDS
;	COMDAT ??_C@_06FHFOAHML@system?$AA@
CONST	SEGMENT
??_C@_06FHFOAHML@system?$AA@ DB 'system', 00H		; `string'
CONST	ENDS
;	COMDAT ??_7_System_error_category@std@@6B@
CONST	SEGMENT
??_7_System_error_category@std@@6B@ DD FLAT:??_R4_System_error_category@std@@6B@ ; std::_System_error_category::`vftable'
	DD	FLAT:??_E_System_error_category@std@@UAEPAXI@Z
	DD	FLAT:?name@_System_error_category@std@@UBEPBDXZ
	DD	FLAT:?message@_System_error_category@std@@UBE?AV?$basic_string@DU?$char_traits@D@std@@V?$allocator@D@2@@2@H@Z
	DD	FLAT:?default_error_condition@_System_error_category@std@@UBE?AVerror_condition@2@H@Z
	DD	FLAT:?equivalent@error_category@std@@UBE_NABVerror_code@2@H@Z
	DD	FLAT:?equivalent@error_category@std@@UBE_NHABVerror_condition@2@@Z
CONST	ENDS
;	COMDAT ??_C@_0BG@PADBLCHM@iostream?5stream?5error?$AA@
CONST	SEGMENT
??_C@_0BG@PADBLCHM@iostream?5stream?5error?$AA@ DB 'iostream stream error'
	DB	00H						; `string'
CONST	ENDS
;	COMDAT ??_C@_08LLGCOLLL@iostream?$AA@
CONST	SEGMENT
??_C@_08LLGCOLLL@iostream?$AA@ DB 'iostream', 00H	; `string'
CONST	ENDS
;	COMDAT ??_7_Iostream_error_category@std@@6B@
CONST	SEGMENT
??_7_Iostream_error_category@std@@6B@ DD FLAT:??_R4_Iostream_error_category@std@@6B@ ; std::_Iostream_error_category::`vftable'
	DD	FLAT:??_E_Iostream_error_category@std@@UAEPAXI@Z
	DD	FLAT:?name@_Iostream_error_category@std@@UBEPBDXZ
	DD	FLAT:?message@_Iostream_error_category@std@@UBE?AV?$basic_string@DU?$char_traits@D@std@@V?$allocator@D@2@@2@H@Z
	DD	FLAT:?default_error_condition@error_category@std@@UBE?AVerror_condition@2@H@Z
	DD	FLAT:?equivalent@error_category@std@@UBE_NABVerror_code@2@H@Z
	DD	FLAT:?equivalent@error_category@std@@UBE_NHABVerror_condition@2@@Z
CONST	ENDS
;	COMDAT ??_C@_0O@BFJCFAAK@unknown?5error?$AA@
CONST	SEGMENT
??_C@_0O@BFJCFAAK@unknown?5error?$AA@ DB 'unknown error', 00H ; `string'
CONST	ENDS
;	COMDAT ??_C@_07DCLBNMLN@generic?$AA@
CONST	SEGMENT
??_C@_07DCLBNMLN@generic?$AA@ DB 'generic', 00H		; `string'
CONST	ENDS
;	COMDAT ??_7_Generic_error_category@std@@6B@
CONST	SEGMENT
??_7_Generic_error_category@std@@6B@ DD FLAT:??_R4_Generic_error_category@std@@6B@ ; std::_Generic_error_category::`vftable'
	DD	FLAT:??_E_Generic_error_category@std@@UAEPAXI@Z
	DD	FLAT:?name@_Generic_error_category@std@@UBEPBDXZ
	DD	FLAT:?message@_Generic_error_category@std@@UBE?AV?$basic_string@DU?$char_traits@D@std@@V?$allocator@D@2@@2@H@Z
	DD	FLAT:?default_error_condition@error_category@std@@UBE?AVerror_condition@2@H@Z
	DD	FLAT:?equivalent@error_category@std@@UBE_NABVerror_code@2@H@Z
	DD	FLAT:?equivalent@error_category@std@@UBE_NHABVerror_condition@2@@Z
CONST	ENDS
;	COMDAT ??_7error_category@std@@6B@
CONST	SEGMENT
??_7error_category@std@@6B@ DD FLAT:??_R4error_category@std@@6B@ ; std::error_category::`vftable'
	DD	FLAT:??_Eerror_category@std@@UAEPAXI@Z
	DD	FLAT:__purecall
	DD	FLAT:__purecall
	DD	FLAT:?default_error_condition@error_category@std@@UBE?AVerror_condition@2@H@Z
	DD	FLAT:?equivalent@error_category@std@@UBE_NABVerror_code@2@H@Z
	DD	FLAT:?equivalent@error_category@std@@UBE_NHABVerror_condition@2@@Z
CONST	ENDS
;	COMDAT ??_C@_00CNPNBAHC@?$AA@
CONST	SEGMENT
??_C@_00CNPNBAHC@?$AA@ DB 00H				; `string'
CONST	ENDS
;	COMDAT xdata$x
xdata$x	SEGMENT
__unwindtable$?MatrixRotation@gen@@YA?AVCMatrix4x4@1@ABVCVector3@1@M@Z DD 0ffffffffH
	DD	00H
	DD	0ffffffffH
	DD	00H
__tryblocktable$?MatrixRotation@gen@@YA?AVCMatrix4x4@1@ABVCVector3@1@M@Z DD 00H
	DD	00H
	DD	01H
	DD	02H
	DD	FLAT:__catchsym$?MatrixRotation@gen@@YA?AVCMatrix4x4@1@ABVCVector3@1@M@Z$3
__catchsym$?MatrixRotation@gen@@YA?AVCMatrix4x4@1@ABVCVector3@1@M@Z$3 DD 08H
	DD	FLAT:??_R0?AVCFatalException@gen@@@8
	DD	0fffffeecH
	DD	FLAT:__catch$?MatrixRotation@gen@@YA?AVCMatrix4x4@1@ABVCVector3@1@M@Z$0
	DD	040H
	DD	00H
	DD	00H
	DD	FLAT:__catch$?MatrixRotation@gen@@YA?AVCMatrix4x4@1@ABVCVector3@1@M@Z$1
__ehfuncinfo$?MatrixRotation@gen@@YA?AVCMatrix4x4@1@ABVCVector3@1@M@Z DD 019930522H
	DD	02H
	DD	FLAT:__unwindtable$?MatrixRotation@gen@@YA?AVCMatrix4x4@1@ABVCVector3@1@M@Z
	DD	01H
	DD	FLAT:__tryblocktable$?MatrixRotation@gen@@YA?AVCMatrix4x4@1@ABVCVector3@1@M@Z
	DD	2 DUP(00H)
	DD	00H
	DD	01H
xdata$x	ENDS
;	COMDAT xdata$x
xdata$x	SEGMENT
__unwindtable$?MatrixRotation@gen@@YA?AVCMatrix4x4@1@VCVector3@1@W4ERotationOrder@1@@Z DD 0ffffffffH
	DD	00H
	DD	0ffffffffH
	DD	00H
__tryblocktable$?MatrixRotation@gen@@YA?AVCMatrix4x4@1@VCVector3@1@W4ERotationOrder@1@@Z DD 00H
	DD	00H
	DD	01H
	DD	02H
	DD	FLAT:__catchsym$?MatrixRotation@gen@@YA?AVCMatrix4x4@1@VCVector3@1@W4ERotationOrder@1@@Z$3
__catchsym$?MatrixRotation@gen@@YA?AVCMatrix4x4@1@VCVector3@1@W4ERotationOrder@1@@Z$3 DD 08H
	DD	FLAT:??_R0?AVCFatalException@gen@@@8
	DD	0fffffef0H
	DD	FLAT:__catch$?MatrixRotation@gen@@YA?AVCMatrix4x4@1@VCVector3@1@W4ERotationOrder@1@@Z$0
	DD	040H
	DD	00H
	DD	00H
	DD	FLAT:__catch$?MatrixRotation@gen@@YA?AVCMatrix4x4@1@VCVector3@1@W4ERotationOrder@1@@Z$1
__ehfuncinfo$?MatrixRotation@gen@@YA?AVCMatrix4x4@1@VCVector3@1@W4ERotationOrder@1@@Z DD 019930522H
	DD	02H
	DD	FLAT:__unwindtable$?MatrixRotation@gen@@YA?AVCMatrix4x4@1@VCVector3@1@W4ERotationOrder@1@@Z
	DD	01H
	DD	FLAT:__tryblocktable$?MatrixRotation@gen@@YA?AVCMatrix4x4@1@VCVector3@1@W4ERotationOrder@1@@Z
	DD	2 DUP(00H)
	DD	00H
	DD	01H
xdata$x	ENDS
;	COMDAT xdata$x
xdata$x	SEGMENT
__unwindtable$?Inverse@gen@@YA?AVCMatrix4x4@1@ABV21@@Z DD 0ffffffffH
	DD	00H
	DD	0ffffffffH
	DD	00H
__tryblocktable$?Inverse@gen@@YA?AVCMatrix4x4@1@ABV21@@Z DD 00H
	DD	00H
	DD	01H
	DD	02H
	DD	FLAT:__catchsym$?Inverse@gen@@YA?AVCMatrix4x4@1@ABV21@@Z$3
__catchsym$?Inverse@gen@@YA?AVCMatrix4x4@1@ABV21@@Z$3 DD 08H
	DD	FLAT:??_R0?AVCFatalException@gen@@@8
	DD	0fffffee4H
	DD	FLAT:__catch$?Inverse@gen@@YA?AVCMatrix4x4@1@ABV21@@Z$0
	DD	040H
	DD	00H
	DD	00H
	DD	FLAT:__catch$?Inverse@gen@@YA?AVCMatrix4x4@1@ABV21@@Z$1
__ehfuncinfo$?Inverse@gen@@YA?AVCMatrix4x4@1@ABV21@@Z DD 019930522H
	DD	02H
	DD	FLAT:__unwindtable$?Inverse@gen@@YA?AVCMatrix4x4@1@ABV21@@Z
	DD	01H
	DD	FLAT:__tryblocktable$?Inverse@gen@@YA?AVCMatrix4x4@1@ABV21@@Z
	DD	2 DUP(00H)
	DD	00H
	DD	01H
xdata$x	ENDS
;	COMDAT xdata$x
xdata$x	SEGMENT
__unwindtable$?InverseAffine@gen@@YA?AVCMatrix4x4@1@ABV21@@Z DD 0ffffffffH
	DD	00H
	DD	0ffffffffH
	DD	00H
__tryblocktable$?InverseAffine@gen@@YA?AVCMatrix4x4@1@ABV21@@Z DD 00H
	DD	00H
	DD	01H
	DD	02H
	DD	FLAT:__catchsym$?InverseAffine@gen@@YA?AVCMatrix4x4@1@ABV21@@Z$3
__catchsym$?InverseAffine@gen@@YA?AVCMatrix4x4@1@ABV21@@Z$3 DD 08H
	DD	FLAT:??_R0?AVCFatalException@gen@@@8
	DD	0ffffff00H
	DD	FLAT:__catch$?InverseAffine@gen@@YA?AVCMatrix4x4@1@ABV21@@Z$0
	DD	040H
	DD	00H
	DD	00H
	DD	FLAT:__catch$?InverseAffine@gen@@YA?AVCMatrix4x4@1@ABV21@@Z$1
__ehfuncinfo$?InverseAffine@gen@@YA?AVCMatrix4x4@1@ABV21@@Z DD 019930522H
	DD	02H
	DD	FLAT:__unwindtable$?InverseAffine@gen@@YA?AVCMatrix4x4@1@ABV21@@Z
	DD	01H
	DD	FLAT:__tryblocktable$?InverseAffine@gen@@YA?AVCMatrix4x4@1@ABV21@@Z
	DD	2 DUP(00H)
	DD	00H
	DD	01H
xdata$x	ENDS
;	COMDAT xdata$x
xdata$x	SEGMENT
__unwindtable$?InverseRotTransScale@gen@@YA?AVCMatrix4x4@1@ABV21@@Z DD 0ffffffffH
	DD	00H
	DD	0ffffffffH
	DD	00H
__tryblocktable$?InverseRotTransScale@gen@@YA?AVCMatrix4x4@1@ABV21@@Z DD 00H
	DD	00H
	DD	01H
	DD	02H
	DD	FLAT:__catchsym$?InverseRotTransScale@gen@@YA?AVCMatrix4x4@1@ABV21@@Z$3
__catchsym$?InverseRotTransScale@gen@@YA?AVCMatrix4x4@1@ABV21@@Z$3 DD 08H
	DD	FLAT:??_R0?AVCFatalException@gen@@@8
	DD	0ffffff04H
	DD	FLAT:__catch$?InverseRotTransScale@gen@@YA?AVCMatrix4x4@1@ABV21@@Z$0
	DD	040H
	DD	00H
	DD	00H
	DD	FLAT:__catch$?InverseRotTransScale@gen@@YA?AVCMatrix4x4@1@ABV21@@Z$1
__ehfuncinfo$?InverseRotTransScale@gen@@YA?AVCMatrix4x4@1@ABV21@@Z DD 019930522H
	DD	02H
	DD	FLAT:__unwindtable$?InverseRotTransScale@gen@@YA?AVCMatrix4x4@1@ABV21@@Z
	DD	01H
	DD	FLAT:__tryblocktable$?InverseRotTransScale@gen@@YA?AVCMatrix4x4@1@ABV21@@Z
	DD	2 DUP(00H)
	DD	00H
	DD	01H
xdata$x	ENDS
;	COMDAT xdata$x
xdata$x	SEGMENT
__unwindtable$?Orthogonalise3x3@gen@@YA?AVCMatrix4x4@1@ABV21@ABVCVector3@1@@Z DD 0ffffffffH
	DD	00H
	DD	0ffffffffH
	DD	00H
__tryblocktable$?Orthogonalise3x3@gen@@YA?AVCMatrix4x4@1@ABV21@ABVCVector3@1@@Z DD 00H
	DD	00H
	DD	01H
	DD	02H
	DD	FLAT:__catchsym$?Orthogonalise3x3@gen@@YA?AVCMatrix4x4@1@ABV21@ABVCVector3@1@@Z$3
__catchsym$?Orthogonalise3x3@gen@@YA?AVCMatrix4x4@1@ABV21@ABVCVector3@1@@Z$3 DD 08H
	DD	FLAT:??_R0?AVCFatalException@gen@@@8
	DD	0fffffe90H
	DD	FLAT:__catch$?Orthogonalise3x3@gen@@YA?AVCMatrix4x4@1@ABV21@ABVCVector3@1@@Z$0
	DD	040H
	DD	00H
	DD	00H
	DD	FLAT:__catch$?Orthogonalise3x3@gen@@YA?AVCMatrix4x4@1@ABV21@ABVCVector3@1@@Z$1
__ehfuncinfo$?Orthogonalise3x3@gen@@YA?AVCMatrix4x4@1@ABV21@ABVCVector3@1@@Z DD 019930522H
	DD	02H
	DD	FLAT:__unwindtable$?Orthogonalise3x3@gen@@YA?AVCMatrix4x4@1@ABV21@ABVCVector3@1@@Z
	DD	01H
	DD	FLAT:__tryblocktable$?Orthogonalise3x3@gen@@YA?AVCMatrix4x4@1@ABV21@ABVCVector3@1@@Z
	DD	2 DUP(00H)
	DD	00H
	DD	01H
xdata$x	ENDS
;	COMDAT xdata$x
xdata$x	SEGMENT
__unwindtable$?MakeRotation@CMatrix4x4@gen@@QAEXABVCVector3@2@M@Z DD 0ffffffffH
	DD	00H
	DD	0ffffffffH
	DD	00H
__tryblocktable$?MakeRotation@CMatrix4x4@gen@@QAEXABVCVector3@2@M@Z DD 00H
	DD	00H
	DD	01H
	DD	02H
	DD	FLAT:__catchsym$?MakeRotation@CMatrix4x4@gen@@QAEXABVCVector3@2@M@Z$3
__catchsym$?MakeRotation@CMatrix4x4@gen@@QAEXABVCVector3@2@M@Z$3 DD 08H
	DD	FLAT:??_R0?AVCFatalException@gen@@@8
	DD	0fffffeecH
	DD	FLAT:__catch$?MakeRotation@CMatrix4x4@gen@@QAEXABVCVector3@2@M@Z$0
	DD	040H
	DD	00H
	DD	00H
	DD	FLAT:__catch$?MakeRotation@CMatrix4x4@gen@@QAEXABVCVector3@2@M@Z$1
__ehfuncinfo$?MakeRotation@CMatrix4x4@gen@@QAEXABVCVector3@2@M@Z DD 019930522H
	DD	02H
	DD	FLAT:__unwindtable$?MakeRotation@CMatrix4x4@gen@@QAEXABVCVector3@2@M@Z
	DD	01H
	DD	FLAT:__tryblocktable$?MakeRotation@CMatrix4x4@gen@@QAEXABVCVector3@2@M@Z
	DD	2 DUP(00H)
	DD	00H
	DD	01H
xdata$x	ENDS
;	COMDAT xdata$x
xdata$x	SEGMENT
__unwindtable$?MakeRotation@CMatrix4x4@gen@@QAEXVCVector3@2@W4ERotationOrder@2@@Z DD 0ffffffffH
	DD	00H
	DD	0ffffffffH
	DD	00H
__tryblocktable$?MakeRotation@CMatrix4x4@gen@@QAEXVCVector3@2@W4ERotationOrder@2@@Z DD 00H
	DD	00H
	DD	01H
	DD	02H
	DD	FLAT:__catchsym$?MakeRotation@CMatrix4x4@gen@@QAEXVCVector3@2@W4ERotationOrder@2@@Z$3
__catchsym$?MakeRotation@CMatrix4x4@gen@@QAEXVCVector3@2@W4ERotationOrder@2@@Z$3 DD 08H
	DD	FLAT:??_R0?AVCFatalException@gen@@@8
	DD	0fffffef0H
	DD	FLAT:__catch$?MakeRotation@CMatrix4x4@gen@@QAEXVCVector3@2@W4ERotationOrder@2@@Z$0
	DD	040H
	DD	00H
	DD	00H
	DD	FLAT:__catch$?MakeRotation@CMatrix4x4@gen@@QAEXVCVector3@2@W4ERotationOrder@2@@Z$1
__ehfuncinfo$?MakeRotation@CMatrix4x4@gen@@QAEXVCVector3@2@W4ERotationOrder@2@@Z DD 019930522H
	DD	02H
	DD	FLAT:__unwindtable$?MakeRotation@CMatrix4x4@gen@@QAEXVCVector3@2@W4ERotationOrder@2@@Z
	DD	01H
	DD	FLAT:__tryblocktable$?MakeRotation@CMatrix4x4@gen@@QAEXVCVector3@2@W4ERotationOrder@2@@Z
	DD	2 DUP(00H)
	DD	00H
	DD	01H
xdata$x	ENDS
;	COMDAT xdata$x
xdata$x	SEGMENT
__unwindtable$?InvertRotTransScale@CMatrix4x4@gen@@QAEXXZ DD 0ffffffffH
	DD	00H
	DD	0ffffffffH
	DD	00H
__tryblocktable$?InvertRotTransScale@CMatrix4x4@gen@@QAEXXZ DD 00H
	DD	00H
	DD	01H
	DD	02H
	DD	FLAT:__catchsym$?InvertRotTransScale@CMatrix4x4@gen@@QAEXXZ$3
__catchsym$?InvertRotTransScale@CMatrix4x4@gen@@QAEXXZ$3 DD 08H
	DD	FLAT:??_R0?AVCFatalException@gen@@@8
	DD	0fffffef4H
	DD	FLAT:__catch$?InvertRotTransScale@CMatrix4x4@gen@@QAEXXZ$0
	DD	040H
	DD	00H
	DD	00H
	DD	FLAT:__catch$?InvertRotTransScale@CMatrix4x4@gen@@QAEXXZ$1
__ehfuncinfo$?InvertRotTransScale@CMatrix4x4@gen@@QAEXXZ DD 019930522H
	DD	02H
	DD	FLAT:__unwindtable$?InvertRotTransScale@CMatrix4x4@gen@@QAEXXZ
	DD	01H
	DD	FLAT:__tryblocktable$?InvertRotTransScale@CMatrix4x4@gen@@QAEXXZ
	DD	2 DUP(00H)
	DD	00H
	DD	01H
xdata$x	ENDS
;	COMDAT xdata$x
xdata$x	SEGMENT
__unwindtable$?Orthogonalise3x3@CMatrix4x4@gen@@QAEXABVCVector3@2@@Z DD 0ffffffffH
	DD	00H
	DD	0ffffffffH
	DD	00H
__tryblocktable$?Orthogonalise3x3@CMatrix4x4@gen@@QAEXABVCVector3@2@@Z DD 00H
	DD	00H
	DD	01H
	DD	02H
	DD	FLAT:__catchsym$?Orthogonalise3x3@CMatrix4x4@gen@@QAEXABVCVector3@2@@Z$3
__catchsym$?Orthogonalise3x3@CMatrix4x4@gen@@QAEXABVCVector3@2@@Z$3 DD 08H
	DD	FLAT:??_R0?AVCFatalException@gen@@@8
	DD	0fffffe84H
	DD	FLAT:__catch$?Orthogonalise3x3@CMatrix4x4@gen@@QAEXABVCVector3@2@@Z$0
	DD	040H
	DD	00H
	DD	00H
	DD	FLAT:__catch$?Orthogonalise3x3@CMatrix4x4@gen@@QAEXABVCVector3@2@@Z$1
__ehfuncinfo$?Orthogonalise3x3@CMatrix4x4@gen@@QAEXABVCVector3@2@@Z DD 019930522H
	DD	02H
	DD	FLAT:__unwindtable$?Orthogonalise3x3@CMatrix4x4@gen@@QAEXABVCVector3@2@@Z
	DD	01H
	DD	FLAT:__tryblocktable$?Orthogonalise3x3@CMatrix4x4@gen@@QAEXABVCVector3@2@@Z
	DD	2 DUP(00H)
	DD	00H
	DD	01H
xdata$x	ENDS
;	COMDAT xdata$x
xdata$x	SEGMENT
__unwindtable$?DecomposeAffineEuler@CMatrix4x4@gen@@QBEXPAVCVector3@2@00W4ERotationOrder@2@@Z DD 0ffffffffH
	DD	00H
	DD	0ffffffffH
	DD	00H
__tryblocktable$?DecomposeAffineEuler@CMatrix4x4@gen@@QBEXPAVCVector3@2@00W4ERotationOrder@2@@Z DD 00H
	DD	00H
	DD	01H
	DD	02H
	DD	FLAT:__catchsym$?DecomposeAffineEuler@CMatrix4x4@gen@@QBEXPAVCVector3@2@00W4ERotationOrder@2@@Z$3
__catchsym$?DecomposeAffineEuler@CMatrix4x4@gen@@QBEXPAVCVector3@2@00W4ERotationOrder@2@@Z$3 DD 08H
	DD	FLAT:??_R0?AVCFatalException@gen@@@8
	DD	0fffffe60H
	DD	FLAT:__catch$?DecomposeAffineEuler@CMatrix4x4@gen@@QBEXPAVCVector3@2@00W4ERotationOrder@2@@Z$0
	DD	040H
	DD	00H
	DD	00H
	DD	FLAT:__catch$?DecomposeAffineEuler@CMatrix4x4@gen@@QBEXPAVCVector3@2@00W4ERotationOrder@2@@Z$1
__ehfuncinfo$?DecomposeAffineEuler@CMatrix4x4@gen@@QBEXPAVCVector3@2@00W4ERotationOrder@2@@Z DD 019930522H
	DD	02H
	DD	FLAT:__unwindtable$?DecomposeAffineEuler@CMatrix4x4@gen@@QBEXPAVCVector3@2@00W4ERotationOrder@2@@Z
	DD	01H
	DD	FLAT:__tryblocktable$?DecomposeAffineEuler@CMatrix4x4@gen@@QBEXPAVCVector3@2@00W4ERotationOrder@2@@Z
	DD	2 DUP(00H)
	DD	00H
	DD	01H
xdata$x	ENDS
;	COMDAT xdata$x
xdata$x	SEGMENT
__unwindtable$??0CFatalException@gen@@QAE@ABV01@@Z DD 0ffffffffH
	DD	FLAT:__unwindfunclet$??0CFatalException@gen@@QAE@ABV01@@Z$0
	DD	00H
	DD	FLAT:__unwindfunclet$??0CFatalException@gen@@QAE@ABV01@@Z$1
__ehfuncinfo$??0CFatalException@gen@@QAE@ABV01@@Z DD 019930522H
	DD	02H
	DD	FLAT:__unwindtable$??0CFatalException@gen@@QAE@ABV01@@Z
	DD	2 DUP(00H)
	DD	2 DUP(00H)
	DD	00H
	DD	01H
xdata$x	ENDS
;	COMDAT xdata$x
xdata$x	SEGMENT
__unwindtable$??0CFatalException@gen@@QAE@PBD00@Z DD 0ffffffffH
	DD	FLAT:__unwindfunclet$??0CFatalException@gen@@QAE@PBD00@Z$0
	DD	00H
	DD	FLAT:__unwindfunclet$??0CFatalException@gen@@QAE@PBD00@Z$1
	DD	01H
	DD	FLAT:__unwindfunclet$??0CFatalException@gen@@QAE@PBD00@Z$2
__ehfuncinfo$??0CFatalException@gen@@QAE@PBD00@Z DD 019930522H
	DD	03H
	DD	FLAT:__unwindtable$??0CFatalException@gen@@QAE@PBD00@Z
	DD	2 DUP(00H)
	DD	2 DUP(00H)
	DD	00H
	DD	01H
xdata$x	ENDS
;	COMDAT xdata$x
xdata$x	SEGMENT
__unwindtable$??0CFatalException@gen@@QAE@PBD0H@Z DD 0ffffffffH
	DD	FLAT:__unwindfunclet$??0CFatalException@gen@@QAE@PBD0H@Z$0
	DD	00H
	DD	FLAT:__unwindfunclet$??0CFatalException@gen@@QAE@PBD0H@Z$1
__ehfuncinfo$??0CFatalException@gen@@QAE@PBD0H@Z DD 019930522H
	DD	02H
	DD	FLAT:__unwindtable$??0CFatalException@gen@@QAE@PBD0H@Z
	DD	2 DUP(00H)
	DD	2 DUP(00H)
	DD	00H
	DD	01H
xdata$x	ENDS
;	COMDAT xdata$x
xdata$x	SEGMENT
__catchsym$?_Copy@?$basic_string@DU?$char_traits@D@std@@V?$allocator@D@2@@std@@QAEXII@Z$5 DD 040H
	DD	00H
	DD	00H
	DD	FLAT:__catch$?_Copy@?$basic_string@DU?$char_traits@D@std@@V?$allocator@D@2@@std@@QAEXII@Z$0
__catchsym$?_Copy@?$basic_string@DU?$char_traits@D@std@@V?$allocator@D@2@@std@@QAEXII@Z$4 DD 040H
	DD	00H
	DD	00H
	DD	FLAT:__catch$?_Copy@?$basic_string@DU?$char_traits@D@std@@V?$allocator@D@2@@std@@QAEXII@Z$1
__unwindtable$?_Copy@?$basic_string@DU?$char_traits@D@std@@V?$allocator@D@2@@std@@QAEXII@Z DD 0ffffffffH
	DD	00H
	DD	0ffffffffH
	DD	00H
	DD	01H
	DD	00H
	DD	01H
	DD	00H
__ehfuncinfo$?_Copy@?$basic_string@DU?$char_traits@D@std@@V?$allocator@D@2@@std@@QAEXII@Z DD 019930522H
	DD	04H
	DD	FLAT:__unwindtable$?_Copy@?$basic_string@DU?$char_traits@D@std@@V?$allocator@D@2@@std@@QAEXII@Z
	DD	02H
	DD	FLAT:__tryblocktable$?_Copy@?$basic_string@DU?$char_traits@D@std@@V?$allocator@D@2@@std@@QAEXII@Z
	DD	2 DUP(00H)
	DD	00H
	DD	01H
__tryblocktable$?_Copy@?$basic_string@DU?$char_traits@D@std@@V?$allocator@D@2@@std@@QAEXII@Z DD 02H
	DD	02H
	DD	03H
	DD	01H
	DD	FLAT:__catchsym$?_Copy@?$basic_string@DU?$char_traits@D@std@@V?$allocator@D@2@@std@@QAEXII@Z$4
	DD	00H
	DD	00H
	DD	03H
	DD	01H
	DD	FLAT:__catchsym$?_Copy@?$basic_string@DU?$char_traits@D@std@@V?$allocator@D@2@@std@@QAEXII@Z$5
xdata$x	ENDS
CRT$XCU	SEGMENT
_ksPathSeparator$initializer$ DD FLAT:??__EksPathSeparator@gen@@YAXXZ
CRT$XCU	ENDS
CRT$XCU	SEGMENT
_ksNewline$initializer$ DD FLAT:??__EksNewline@gen@@YAXXZ
CRT$XCU	ENDS
;	COMDAT CRT$XCU
CRT$XCU	SEGMENT
?_Generic_object$initializer$@?$_Error_objects@H@std@@2P6AXXZA DD FLAT:??__E?_Generic_object@?$_Error_objects@H@std@@2V_Generic_error_category@2@A@@YAXXZ ; std::_Error_objects<int>::_Generic_object$initializer$
CRT$XCU	ENDS
;	COMDAT CRT$XCU
CRT$XCU	SEGMENT
?_Iostream_object$initializer$@?$_Error_objects@H@std@@2P6AXXZA DD FLAT:??__E?_Iostream_object@?$_Error_objects@H@std@@2V_Iostream_error_category@2@A@@YAXXZ ; std::_Error_objects<int>::_Iostream_object$initializer$
CRT$XCU	ENDS
;	COMDAT CRT$XCU
CRT$XCU	SEGMENT
?_System_object$initializer$@?$_Error_objects@H@std@@2P6AXXZA DD FLAT:??__E?_System_object@?$_Error_objects@H@std@@2V_System_error_category@2@A@@YAXXZ ; std::_Error_objects<int>::_System_object$initializer$
CRT$XCU	ENDS
; Function compile flags: /Ogtp
; File c:\program files (x86)\microsoft visual studio 12.0\vc\include\xmemory0
;	COMDAT ??$destroy@PAD@?$allocator@D@std@@QAEXPAPAD@Z
_TEXT	SEGMENT
__Ptr$ = 8						; size = 4
??$destroy@PAD@?$allocator@D@std@@QAEXPAPAD@Z PROC	; std::allocator<char>::destroy<char *>, COMDAT
; _this$ = ecx

; 606  : 		{	// destroy object at _Ptr
; 607  : 		_Ptr->~_Uty();
; 608  : 		}

	ret	4
??$destroy@PAD@?$allocator@D@std@@QAEXPAPAD@Z ENDP	; std::allocator<char>::destroy<char *>
_TEXT	ENDS
; Function compile flags: /Ogtp
; File c:\program files (x86)\microsoft visual studio 12.0\vc\include\xmemory0
;	COMDAT ??$construct@PADAAPAD@?$allocator@D@std@@QAEXPAPADAAPAD@Z
_TEXT	SEGMENT
__Ptr$ = 8						; size = 4
_<_Args_0>$ = 12					; size = 4
??$construct@PADAAPAD@?$allocator@D@std@@QAEXPAPADAAPAD@Z PROC ; std::allocator<char>::construct<char *,char * &>, COMDAT
; _this$ = ecx

; 598  : 		void construct(_Objty *_Ptr, _Types&&... _Args)

	push	ebp
	mov	ebp, esp

; 599  : 		{	// construct _Objty(_Types...) at _Ptr
; 600  : 		::new ((void *)_Ptr) _Objty(_STD forward<_Types>(_Args)...);

	mov	ecx, DWORD PTR __Ptr$[ebp]
	test	ecx, ecx
	je	SHORT $LN3@construct
	mov	eax, DWORD PTR _<_Args_0>$[ebp]
	mov	eax, DWORD PTR [eax]
	mov	DWORD PTR [ecx], eax
$LN3@construct:

; 601  : 		}

	pop	ebp
	ret	8
??$construct@PADAAPAD@?$allocator@D@std@@QAEXPAPADAAPAD@Z ENDP ; std::allocator<char>::construct<char *,char * &>
_TEXT	ENDS
; Function compile flags: /Ogtp
; File c:\program files (x86)\microsoft visual studio 12.0\vc\include\xmemory0
;	COMDAT ??$destroy@PAD@?$allocator_traits@V?$allocator@D@std@@@std@@SAXAAV?$allocator@D@1@PAPAD@Z
_TEXT	SEGMENT
__Al$ = 8						; size = 4
__Ptr$ = 12						; size = 4
??$destroy@PAD@?$allocator_traits@V?$allocator@D@std@@@std@@SAXAAV?$allocator@D@1@PAPAD@Z PROC ; std::allocator_traits<std::allocator<char> >::destroy<char *>, COMDAT

; 729  : 		{	// destroy object at _Ptr
; 730  : 		_Al.destroy(_Ptr);
; 731  : 		}

	ret	0
??$destroy@PAD@?$allocator_traits@V?$allocator@D@std@@@std@@SAXAAV?$allocator@D@1@PAPAD@Z ENDP ; std::allocator_traits<std::allocator<char> >::destroy<char *>
_TEXT	ENDS
; Function compile flags: /Ogtp
; File c:\program files (x86)\microsoft visual studio 12.0\vc\include\xmemory0
;	COMDAT ??$construct@PADAAPAD@?$allocator_traits@V?$allocator@D@std@@@std@@SAXAAV?$allocator@D@1@PAPADAAPAD@Z
_TEXT	SEGMENT
__Al$ = 8						; size = 4
__Ptr$ = 12						; size = 4
_<_Args_0>$ = 16					; size = 4
??$construct@PADAAPAD@?$allocator_traits@V?$allocator@D@std@@@std@@SAXAAV?$allocator@D@1@PAPADAAPAD@Z PROC ; std::allocator_traits<std::allocator<char> >::construct<char *,char * &>, COMDAT

; 720  : 		static void construct(_Alloc& _Al, _Objty *_Ptr,

	push	ebp
	mov	ebp, esp

; 600  : 		::new ((void *)_Ptr) _Objty(_STD forward<_Types>(_Args)...);

	mov	ecx, DWORD PTR __Ptr$[ebp]
	test	ecx, ecx
	je	SHORT $LN7@construct
	mov	eax, DWORD PTR _<_Args_0>$[ebp]
	mov	eax, DWORD PTR [eax]
	mov	DWORD PTR [ecx], eax
$LN7@construct:

; 721  : 			_Types&&... _Args)
; 722  : 		{	// construct _Objty(_Types...) at _Ptr
; 723  : 		_Al.construct(_Ptr, _STD forward<_Types>(_Args)...);
; 724  : 		}

	pop	ebp
	ret	0
??$construct@PADAAPAD@?$allocator_traits@V?$allocator@D@std@@@std@@SAXAAV?$allocator@D@1@PAPADAAPAD@Z ENDP ; std::allocator_traits<std::allocator<char> >::construct<char *,char * &>
_TEXT	ENDS
; Function compile flags: /Ogtp
; File c:\program files (x86)\microsoft visual studio 12.0\vc\include\type_traits
;	COMDAT ??$forward@AAPAD@std@@YAAAPADAAPAD@Z
_TEXT	SEGMENT
__Arg$ = 8						; size = 4
??$forward@AAPAD@std@@YAAAPADAAPAD@Z PROC		; std::forward<char * &>, COMDAT

; 1504 : 	{	// forward an lvalue

	push	ebp
	mov	ebp, esp

; 1505 : 	return (static_cast<_Ty&&>(_Arg));

	mov	eax, DWORD PTR __Arg$[ebp]

; 1506 : 	}

	pop	ebp
	ret	0
??$forward@AAPAD@std@@YAAAPADAAPAD@Z ENDP		; std::forward<char * &>
_TEXT	ENDS
; Function compile flags: /Ogtp
; File c:\program files (x86)\microsoft visual studio 12.0\vc\include\system_error
;	COMDAT ??__F?_System_object@?$_Error_objects@H@std@@2V_System_error_category@2@A@@YAXXZ
text$yd	SEGMENT
??__F?_System_object@?$_Error_objects@H@std@@2V_System_error_category@2@A@@YAXXZ PROC ; `dynamic atexit destructor for 'std::_Error_objects<int>::_System_object'', COMDAT

; 159  : 		{	// destroy the object

	mov	DWORD PTR ?_System_object@?$_Error_objects@H@std@@2V_System_error_category@2@A, OFFSET ??_7error_category@std@@6B@ ; std::_Error_objects<int>::_System_object
	ret	0
??__F?_System_object@?$_Error_objects@H@std@@2V_System_error_category@2@A@@YAXXZ ENDP ; `dynamic atexit destructor for 'std::_Error_objects<int>::_System_object''
text$yd	ENDS
; Function compile flags: /Ogtp
; File c:\program files (x86)\microsoft visual studio 12.0\vc\include\xmemory0
;	COMDAT ??__E?_System_object@?$_Error_objects@H@std@@2V_System_error_category@2@A@@YAXXZ
text$di	SEGMENT
??__E?_System_object@?$_Error_objects@H@std@@2V_System_error_category@2@A@@YAXXZ PROC ; `dynamic initializer for 'std::_Error_objects<int>::_System_object'', COMDAT

; 611  : 		{	// estimate maximum array size

	push	OFFSET ??__F?_System_object@?$_Error_objects@H@std@@2V_System_error_category@2@A@@YAXXZ ; `dynamic atexit destructor for 'std::_Error_objects<int>::_System_object''
	call	_atexit
	pop	ecx
	ret	0
??__E?_System_object@?$_Error_objects@H@std@@2V_System_error_category@2@A@@YAXXZ ENDP ; `dynamic initializer for 'std::_Error_objects<int>::_System_object''
text$di	ENDS
; Function compile flags: /Ogtp
; File c:\program files (x86)\microsoft visual studio 12.0\vc\include\system_error
;	COMDAT ??__F?_Iostream_object@?$_Error_objects@H@std@@2V_Iostream_error_category@2@A@@YAXXZ
text$yd	SEGMENT
??__F?_Iostream_object@?$_Error_objects@H@std@@2V_Iostream_error_category@2@A@@YAXXZ PROC ; `dynamic atexit destructor for 'std::_Error_objects<int>::_Iostream_object'', COMDAT

; 159  : 		{	// destroy the object

	mov	DWORD PTR ?_Iostream_object@?$_Error_objects@H@std@@2V_Iostream_error_category@2@A, OFFSET ??_7error_category@std@@6B@ ; std::_Error_objects<int>::_Iostream_object
	ret	0
??__F?_Iostream_object@?$_Error_objects@H@std@@2V_Iostream_error_category@2@A@@YAXXZ ENDP ; `dynamic atexit destructor for 'std::_Error_objects<int>::_Iostream_object''
text$yd	ENDS
; Function compile flags: /Ogtp
; File c:\program files (x86)\microsoft visual studio 12.0\vc\include\xmemory0
;	COMDAT ??__E?_Iostream_object@?$_Error_objects@H@std@@2V_Iostream_error_category@2@A@@YAXXZ
text$di	SEGMENT
??__E?_Iostream_object@?$_Error_objects@H@std@@2V_Iostream_error_category@2@A@@YAXXZ PROC ; `dynamic initializer for 'std::_Error_objects<int>::_Iostream_object'', COMDAT

; 611  : 		{	// estimate maximum array size

	push	OFFSET ??__F?_Iostream_object@?$_Error_objects@H@std@@2V_Iostream_error_category@2@A@@YAXXZ ; `dynamic atexit destructor for 'std::_Error_objects<int>::_Iostream_object''
	call	_atexit
	pop	ecx
	ret	0
??__E?_Iostream_object@?$_Error_objects@H@std@@2V_Iostream_error_category@2@A@@YAXXZ ENDP ; `dynamic initializer for 'std::_Error_objects<int>::_Iostream_object''
text$di	ENDS
; Function compile flags: /Ogtp
; File c:\program files (x86)\microsoft visual studio 12.0\vc\include\system_error
;	COMDAT ??__F?_Generic_object@?$_Error_objects@H@std@@2V_Generic_error_category@2@A@@YAXXZ
text$yd	SEGMENT
??__F?_Generic_object@?$_Error_objects@H@std@@2V_Generic_error_category@2@A@@YAXXZ PROC ; `dynamic atexit destructor for 'std::_Error_objects<int>::_Generic_object'', COMDAT

; 159  : 		{	// destroy the object

	mov	DWORD PTR ?_Generic_object@?$_Error_objects@H@std@@2V_Generic_error_category@2@A, OFFSET ??_7error_category@std@@6B@ ; std::_Error_objects<int>::_Generic_object
	ret	0
??__F?_Generic_object@?$_Error_objects@H@std@@2V_Generic_error_category@2@A@@YAXXZ ENDP ; `dynamic atexit destructor for 'std::_Error_objects<int>::_Generic_object''
text$yd	ENDS
; Function compile flags: /Ogtp
; File c:\program files (x86)\microsoft visual studio 12.0\vc\include\xmemory0
;	COMDAT ??__E?_Generic_object@?$_Error_objects@H@std@@2V_Generic_error_category@2@A@@YAXXZ
text$di	SEGMENT
??__E?_Generic_object@?$_Error_objects@H@std@@2V_Generic_error_category@2@A@@YAXXZ PROC ; `dynamic initializer for 'std::_Error_objects<int>::_Generic_object'', COMDAT

; 611  : 		{	// estimate maximum array size

	push	OFFSET ??__F?_Generic_object@?$_Error_objects@H@std@@2V_Generic_error_category@2@A@@YAXXZ ; `dynamic atexit destructor for 'std::_Error_objects<int>::_Generic_object''
	call	_atexit
	pop	ecx
	ret	0
??__E?_Generic_object@?$_Error_objects@H@std@@2V_Generic_error_category@2@A@@YAXXZ ENDP ; `dynamic initializer for 'std::_Error_objects<int>::_Generic_object''
text$di	ENDS
; Function compile flags: /Ogtp
; File c:\program files (x86)\microsoft visual studio 12.0\vc\include\xmemory0
;	COMDAT ??$_Allocate@D@std@@YAPADIPAD@Z
_TEXT	SEGMENT
__Count$ = 8						; size = 4
___formal$ = 12						; size = 4
??$_Allocate@D@std@@YAPADIPAD@Z PROC			; std::_Allocate<char>, COMDAT

; 22   : 	{	// allocate storage for _Count elements of type _Ty

	push	ebp
	mov	ebp, esp

; 23   : 	void *_Ptr = 0;
; 24   : 
; 25   : 	if (_Count == 0)

	mov	eax, DWORD PTR __Count$[ebp]
	xor	ecx, ecx
	test	eax, eax
	je	SHORT $LN2@Allocate

; 26   : 		;
; 27   : 	else if (((size_t)(-1) / sizeof (_Ty) < _Count)
; 28   : 		|| (_Ptr = ::operator new(_Count * sizeof (_Ty))) == 0)

	cmp	eax, -1
	ja	SHORT $LN1@Allocate
	push	eax
	call	??2@YAPAXI@Z				; operator new
	mov	ecx, eax
	add	esp, 4
	test	ecx, ecx
	jne	SHORT $LN2@Allocate
$LN1@Allocate:

; 29   : 		_Xbad_alloc();	// report no memory

	jmp	?_Xbad_alloc@std@@YAXXZ			; std::_Xbad_alloc
$LN2@Allocate:

; 30   : 
; 31   : 	return ((_Ty *)_Ptr);

	mov	eax, ecx

; 32   : 	}

	pop	ebp
	ret	0
??$_Allocate@D@std@@YAPADIPAD@Z ENDP			; std::_Allocate<char>
_TEXT	ENDS
; Function compile flags: /Ogtp
; File c:\program files (x86)\microsoft visual studio 12.0\vc\include\xstddef
;	COMDAT ??$addressof@D@std@@YAPADAAD@Z
_TEXT	SEGMENT
__Val$ = 8						; size = 4
??$addressof@D@std@@YAPADAAD@Z PROC			; std::addressof<char>, COMDAT

; 92   : 	{	// return address of _Val

	push	ebp
	mov	ebp, esp

; 93   : 	return (reinterpret_cast<_Ty *>(
; 94   : 		(&const_cast<char&>(
; 95   : 		reinterpret_cast<const volatile char&>(_Val)))));

	mov	eax, DWORD PTR __Val$[ebp]

; 96   : 	}

	pop	ebp
	ret	0
??$addressof@D@std@@YAPADAAD@Z ENDP			; std::addressof<char>
_TEXT	ENDS
; Function compile flags: /Ogtp
; File c:\program files (x86)\microsoft visual studio 12.0\vc\include\xmemory0
;	COMDAT ??$destroy@PAD@?$_Wrap_alloc@V?$allocator@D@std@@@std@@QAEXPAPAD@Z
_TEXT	SEGMENT
__Ptr$ = 8						; size = 4
??$destroy@PAD@?$_Wrap_alloc@V?$allocator@D@std@@@std@@QAEXPAPAD@Z PROC ; std::_Wrap_alloc<std::allocator<char> >::destroy<char *>, COMDAT
; _this$ = ecx

; 878  : 		{	// destroy object at _Ptr
; 879  : 		_Mytraits::destroy(*this, _Ptr);
; 880  : 		}

	ret	4
??$destroy@PAD@?$_Wrap_alloc@V?$allocator@D@std@@@std@@QAEXPAPAD@Z ENDP ; std::_Wrap_alloc<std::allocator<char> >::destroy<char *>
_TEXT	ENDS
; Function compile flags: /Ogtp
; File c:\program files (x86)\microsoft visual studio 12.0\vc\include\xmemory0
;	COMDAT ??$construct@PADAAPAD@?$_Wrap_alloc@V?$allocator@D@std@@@std@@QAEXPAPADAAPAD@Z
_TEXT	SEGMENT
__Ptr$ = 8						; size = 4
_<_Args_0>$ = 12					; size = 4
??$construct@PADAAPAD@?$_Wrap_alloc@V?$allocator@D@std@@@std@@QAEXPAPADAAPAD@Z PROC ; std::_Wrap_alloc<std::allocator<char> >::construct<char *,char * &>, COMDAT
; _this$ = ecx

; 868  : 		void construct(_Ty *_Ptr,

	push	ebp
	mov	ebp, esp

; 600  : 		::new ((void *)_Ptr) _Objty(_STD forward<_Types>(_Args)...);

	mov	ecx, DWORD PTR __Ptr$[ebp]
	test	ecx, ecx
	je	SHORT $LN11@construct
	mov	eax, DWORD PTR _<_Args_0>$[ebp]
	mov	eax, DWORD PTR [eax]
	mov	DWORD PTR [ecx], eax
$LN11@construct:

; 869  : 			_Types&&... _Args)
; 870  : 		{	// construct _Ty(_Types...) at _Ptr
; 871  : 		_Mytraits::construct(*this, _Ptr,
; 872  : 			_STD forward<_Types>(_Args)...);
; 873  : 		}

	pop	ebp
	ret	8
??$construct@PADAAPAD@?$_Wrap_alloc@V?$allocator@D@std@@@std@@QAEXPAPADAAPAD@Z ENDP ; std::_Wrap_alloc<std::allocator<char> >::construct<char *,char * &>
_TEXT	ENDS
; Function compile flags: /Ogtp
; File c:\users\simon\documents\github\post-processing\import\math\cvector4.h
;	COMDAT ??ACVector4@gen@@QBEABMI@Z
_TEXT	SEGMENT
_index$ = 8						; size = 4
??ACVector4@gen@@QBEABMI@Z PROC				; gen::CVector4::operator[], COMDAT
; _this$ = ecx

; 178  : 	{

	push	ebp
	mov	ebp, esp

; 179  : 		return (&x)[index];

	mov	eax, DWORD PTR _index$[ebp]
	lea	eax, DWORD PTR [ecx+eax*4]

; 180  : 	}

	pop	ebp
	ret	4
??ACVector4@gen@@QBEABMI@Z ENDP				; gen::CVector4::operator[]
_TEXT	ENDS
; Function compile flags: /Ogtp
; File c:\users\simon\documents\github\post-processing\import\math\cvector4.h
;	COMDAT ??ACVector4@gen@@QAEAAMI@Z
_TEXT	SEGMENT
_index$ = 8						; size = 4
??ACVector4@gen@@QAEAAMI@Z PROC				; gen::CVector4::operator[], COMDAT
; _this$ = ecx

; 172  : 	{

	push	ebp
	mov	ebp, esp

; 173  : 		return (&x)[index];

	mov	eax, DWORD PTR _index$[ebp]
	lea	eax, DWORD PTR [ecx+eax*4]

; 174  : 	}

	pop	ebp
	ret	4
??ACVector4@gen@@QAEAAMI@Z ENDP				; gen::CVector4::operator[]
_TEXT	ENDS
; Function compile flags: /Ogtp
; File c:\users\simon\documents\github\post-processing\import\math\cvector4.h
;	COMDAT ??0CVector4@gen@@QAE@ABV01@@Z
_TEXT	SEGMENT
_v$ = 8							; size = 4
??0CVector4@gen@@QAE@ABV01@@Z PROC			; gen::CVector4::CVector4, COMDAT
; _this$ = ecx

; 101  : 	{}

	push	ebp
	mov	ebp, esp
	mov	edx, DWORD PTR _v$[ebp]
	mov	eax, DWORD PTR [edx]
	mov	DWORD PTR [ecx], eax
	mov	eax, DWORD PTR [edx+4]
	mov	DWORD PTR [ecx+4], eax
	mov	eax, DWORD PTR [edx+8]
	mov	DWORD PTR [ecx+8], eax
	mov	eax, DWORD PTR [edx+12]
	mov	DWORD PTR [ecx+12], eax
	mov	eax, ecx
	pop	ebp
	ret	4
??0CVector4@gen@@QAE@ABV01@@Z ENDP			; gen::CVector4::CVector4
_TEXT	ENDS
; Function compile flags: /Ogtp
; File c:\users\simon\documents\github\post-processing\import\math\cvector4.h
;	COMDAT ??0CVector4@gen@@QAE@PBM@Z
_TEXT	SEGMENT
_pfElts$ = 8						; size = 4
??0CVector4@gen@@QAE@PBM@Z PROC				; gen::CVector4::CVector4, COMDAT
; _this$ = ecx

; 52   : 	explicit CVector4( const TFloat32* pfElts )

	push	ebp
	mov	ebp, esp

; 53   : 	{
; 54   : 		GEN_GUARD_OPT;
; 55   : 		GEN_ASSERT_OPT( pfElts, "Invalid parameter" );
; 56   : 
; 57   : 		x = pfElts[0];

	mov	edx, DWORD PTR _pfElts$[ebp]
	mov	eax, DWORD PTR [edx]
	mov	DWORD PTR [ecx], eax

; 58   : 		y = pfElts[1];

	mov	eax, DWORD PTR [edx+4]
	mov	DWORD PTR [ecx+4], eax

; 59   : 		z = pfElts[2];

	mov	eax, DWORD PTR [edx+8]
	mov	DWORD PTR [ecx+8], eax

; 60   : 		w = pfElts[3];

	mov	eax, DWORD PTR [edx+12]
	mov	DWORD PTR [ecx+12], eax

; 61   : 
; 62   : 		GEN_ENDGUARD_OPT;
; 63   : 	}

	mov	eax, ecx
	pop	ebp
	ret	4
??0CVector4@gen@@QAE@PBM@Z ENDP				; gen::CVector4::CVector4
_TEXT	ENDS
; Function compile flags: /Ogtp
; File c:\users\simon\documents\github\post-processing\import\math\cvector4.h
;	COMDAT ??0CVector4@gen@@QAE@MMMM@Z
_TEXT	SEGMENT
_xIn$ = 8						; size = 4
_yIn$ = 12						; size = 4
_zIn$ = 16						; size = 4
_wIn$ = 20						; size = 4
??0CVector4@gen@@QAE@MMMM@Z PROC			; gen::CVector4::CVector4, COMDAT
; _this$ = ecx

; 49   : 	{}

	push	ebp
	mov	ebp, esp
	movss	xmm0, DWORD PTR _xIn$[ebp]
	mov	eax, ecx
	movss	DWORD PTR [ecx], xmm0
	movss	xmm0, DWORD PTR _yIn$[ebp]
	movss	DWORD PTR [ecx+4], xmm0
	movss	xmm0, DWORD PTR _zIn$[ebp]
	movss	DWORD PTR [ecx+8], xmm0
	movss	xmm0, DWORD PTR _wIn$[ebp]
	movss	DWORD PTR [ecx+12], xmm0
	pop	ebp
	ret	16					; 00000010H
??0CVector4@gen@@QAE@MMMM@Z ENDP			; gen::CVector4::CVector4
_TEXT	ENDS
; Function compile flags: /Ogtp
; File c:\users\simon\documents\github\post-processing\import\math\cvector4.h
;	COMDAT ??0CVector4@gen@@QAE@XZ
_TEXT	SEGMENT
??0CVector4@gen@@QAE@XZ PROC				; gen::CVector4::CVector4, COMDAT
; _this$ = ecx

; 39   : 	CVector4() {}

	mov	eax, ecx
	ret	0
??0CVector4@gen@@QAE@XZ ENDP				; gen::CVector4::CVector4
_TEXT	ENDS
; Function compile flags: /Ogtp
; File c:\users\simon\documents\github\post-processing\import\math\cmatrix4x4.cpp
; File c:\users\simon\documents\github\post-processing\import\math\cvector3.h
; File c:\users\simon\documents\github\post-processing\import\math\cmatrix4x4.cpp
; File c:\users\simon\documents\github\post-processing\import\math\cvector3.h
; File c:\program files (x86)\microsoft visual studio 12.0\vc\include\math.h
; File c:\users\simon\documents\github\post-processing\import\math\basemath.h
; File c:\users\simon\documents\github\post-processing\import\math\cmatrix4x4.cpp
; File c:\users\simon\documents\github\post-processing\import\math\cvector3.h
; File c:\users\simon\documents\github\post-processing\import\math\cmatrix4x4.cpp
; File c:\users\simon\documents\github\post-processing\import\math\cvector3.h
; File c:\users\simon\documents\github\post-processing\import\math\cmatrix4x4.cpp
; File c:\users\simon\documents\github\post-processing\import\math\cvector3.h
; File c:\users\simon\documents\github\post-processing\import\math\cmatrix4x4.cpp
; File c:\users\simon\documents\github\post-processing\import\math\cvector3.h
; File c:\users\simon\documents\github\post-processing\import\math\cmatrix4x4.cpp
; File c:\users\simon\documents\github\post-processing\import\math\cvector3.h
; File c:\users\simon\documents\github\post-processing\import\math\cmatrix4x4.cpp
; File c:\users\simon\documents\github\post-processing\import\math\cvector3.h
; File c:\program files (x86)\microsoft visual studio 12.0\vc\include\math.h
; File c:\users\simon\documents\github\post-processing\import\math\basemath.h
; File c:\users\simon\documents\github\post-processing\import\math\cmatrix4x4.cpp
; File c:\users\simon\documents\github\post-processing\import\math\cvector3.h
; File c:\users\simon\documents\github\post-processing\import\math\cmatrix4x4.cpp
; File c:\users\simon\documents\github\post-processing\import\math\cvector3.h
; File c:\users\simon\documents\github\post-processing\import\math\cmatrix4x4.cpp
; File c:\users\simon\documents\github\post-processing\import\math\cvector3.h
; File c:\users\simon\documents\github\post-processing\import\math\cmatrix4x4.cpp
; File c:\users\simon\documents\github\post-processing\import\math\cvector3.h
; File c:\users\simon\documents\github\post-processing\import\math\cmatrix4x4.cpp
; File c:\users\simon\documents\github\post-processing\import\math\cvector3.h
; File c:\users\simon\documents\github\post-processing\import\math\cmatrix4x4.cpp
; File c:\users\simon\documents\github\post-processing\import\math\cvector3.h
; File c:\program files (x86)\microsoft visual studio 12.0\vc\include\math.h
; File c:\users\simon\documents\github\post-processing\import\math\basemath.h
; File c:\users\simon\documents\github\post-processing\import\math\cmatrix4x4.cpp
; File c:\users\simon\documents\github\post-processing\import\math\cvector3.h
; File c:\users\simon\documents\github\post-processing\import\math\cmatrix4x4.cpp
; File c:\users\simon\documents\github\post-processing\import\math\cvector3.h
; File c:\users\simon\documents\github\post-processing\import\math\cmatrix4x4.cpp
; File c:\users\simon\documents\github\post-processing\import\math\cvector3.h
; File c:\users\simon\documents\github\post-processing\import\math\cmatrix4x4.cpp
; File c:\users\simon\documents\github\post-processing\import\math\cvector3.h
; File c:\users\simon\documents\github\post-processing\import\math\cmatrix4x4.cpp
; File c:\users\simon\documents\github\post-processing\import\math\cvector3.h
; File c:\users\simon\documents\github\post-processing\import\math\cmatrix4x4.cpp
; File c:\users\simon\documents\github\post-processing\import\math\cvector3.h
; File c:\program files (x86)\microsoft visual studio 12.0\vc\include\math.h
; File c:\users\simon\documents\github\post-processing\import\math\basemath.h
; File c:\users\simon\documents\github\post-processing\import\math\cmatrix4x4.cpp
; File c:\users\simon\documents\github\post-processing\import\math\cvector3.h
; File c:\users\simon\documents\github\post-processing\import\math\cmatrix4x4.cpp
; File c:\users\simon\documents\github\post-processing\import\math\cvector3.h
; File c:\users\simon\documents\github\post-processing\import\math\cmatrix4x4.cpp
;	COMDAT ?MatrixFaceDirection@gen@@YA?AVCMatrix4x4@1@ABVCVector3@1@00_N@Z
_TEXT	SEGMENT
$T1 = -68						; size = 12
$T2 = -68						; size = 12
$T3 = -68						; size = 12
$T4 = -56						; size = 12
$T5 = -56						; size = 12
$T6 = -56						; size = 12
$T7 = -56						; size = 12
_axisY$ = -44						; size = 12
_axisX$ = -32						; size = 12
_axisZ$ = -20						; size = 12
_axisZ$4$ = -8						; size = 4
_axisZ$1$ = -8						; size = 4
_axisZ$5$ = -4						; size = 4
_axisZ$2$ = -4						; size = 4
___$ReturnUdt$ = 8					; size = 4
_position$ = 12						; size = 4
_direction$ = 16					; size = 4
_up$ = 20						; size = 4
_axisZ$6$ = 24						; size = 4
_axisZ$3$ = 24						; size = 4
_bLH$ = 24						; size = 1
?MatrixFaceDirection@gen@@YA?AVCMatrix4x4@1@ABVCVector3@1@00_N@Z PROC ; gen::MatrixFaceDirection, COMDAT

; 2894 : {

	push	ebp
	mov	ebp, esp
	sub	esp, 68					; 00000044H

; 2895 : 	// Use cross product of target direction and up vector to give third axis, then orthogonalise
; 2896 : 	CVector3 axisX, axisY, axisZ;
; 2897 : 	if (bLH)

	cmp	BYTE PTR _bLH$[ebp], 0
	push	esi
	je	$LN6@MatrixFace

; 2899 : 		axisZ = Normalise( direction );

	push	DWORD PTR _direction$[ebp]
	lea	eax, DWORD PTR $T7[ebp]
	push	eax
	call	?Normalise@gen@@YA?AVCVector3@1@ABV21@@Z ; gen::Normalise
; File c:\users\simon\documents\github\post-processing\import\math\cvector3.h

; 100  : 		if ( this != &v )

	lea	ecx, DWORD PTR _axisZ$[ebp]
; File c:\users\simon\documents\github\post-processing\import\math\cmatrix4x4.cpp

; 2899 : 		axisZ = Normalise( direction );

	add	esp, 8
; File c:\users\simon\documents\github\post-processing\import\math\cvector3.h

; 100  : 		if ( this != &v )

	cmp	ecx, eax
	je	SHORT $LN85@MatrixFace

; 102  : 			x = v.x;

	movss	xmm4, DWORD PTR [eax]

; 103  : 			y = v.y;

	movss	xmm5, DWORD PTR [eax+4]

; 104  : 			z = v.z;

	movss	xmm6, DWORD PTR [eax+8]
	movss	DWORD PTR _axisZ$[ebp], xmm4
	movss	DWORD PTR _axisZ$[ebp+4], xmm5
	movss	DWORD PTR _axisZ$[ebp+8], xmm6
	jmp	SHORT $LN89@MatrixFace
$LN85@MatrixFace:
	movss	xmm6, DWORD PTR _axisZ$[ebp+8]
	movss	xmm5, DWORD PTR _axisZ$[ebp+4]
	movss	xmm4, DWORD PTR _axisZ$[ebp]
$LN89@MatrixFace:

; 105  : 		}
; 106  : 		return *this;
; 107  : 	}
; 108  : 
; 109  : 
; 110  : 	/*-----------------------------------------------------------------------------------------
; 111  : 		Setters
; 112  : 	-----------------------------------------------------------------------------------------*/
; 113  : 
; 114  : 	// Set all three vector components
; 115  :     void Set
; 116  : 	(
; 117  : 		const TFloat32 xIn,
; 118  : 		const TFloat32 yIn,
; 119  : 		const TFloat32 zIn
; 120  : 	)
; 121  : 	{
; 122  : 		x = xIn;
; 123  : 		y = yIn;
; 124  : 		z = zIn;
; 125  : 	}
; 126  : 
; 127  : 	// Set the vector through a pointer to three floats
; 128  :     void Set( const TFloat32* pfElts )
; 129  : 	{
; 130  : 		x = pfElts[0];
; 131  : 		y = pfElts[1];
; 132  : 		z = pfElts[2];
; 133  : 	}
; 134  : 
; 135  : 	// Set as vector between two points (p1 to p2)
; 136  :     void Set
; 137  : 	(
; 138  : 		const CVector3& p1,
; 139  : 		const CVector3& p2
; 140  : 	)
; 141  : 	{
; 142  : 		x = p2.x - p1.x;
; 143  : 		y = p2.y - p1.y;
; 144  : 		z = p2.z - p1.z;
; 145  : 	}
; 146  : 
; 147  : 	// Set the vector to (0,0,0)
; 148  :     void SetZero()
; 149  : 	{
; 150  : 		x = y = z = 0.0f;
; 151  : 	}
; 152  : 
; 153  : 
; 154  : 	/*-----------------------------------------------------------------------------------------
; 155  : 		Array access
; 156  : 	-----------------------------------------------------------------------------------------*/
; 157  : 
; 158  : 	// Access the x, y & z components in array style (i.e. v[0], v[1], v[2] same as v.x, v.y, v.z)
; 159  : 	// No validation on index
; 160  :     TFloat32& operator[]( const TUInt32 index )
; 161  : 	{
; 162  : 		return (&x)[index];
; 163  : 	}
; 164  : 
; 165  : 	// Access the x, y & z elements in array style - const result
; 166  : 	// No validation on index
; 167  : 	const TFloat32& operator[]( const TUInt32 index ) const
; 168  : 	{
; 169  : 		return (&x)[index];
; 170  : 	}
; 171  : 
; 172  : 
; 173  : 	/*-----------------------------------------------------------------------------------------
; 174  : 		Comparisons
; 175  : 	-----------------------------------------------------------------------------------------*/
; 176  : 	// Equality operators defined as non-member operations after the class definition
; 177  : 
; 178  : 	// Test if the vector is zero length (i.e. = (0,0,0))
; 179  : 	// Uses BaseMath.h float approximation function 'IsZero' with default epsilon (margin of error)
; 180  : 	bool IsZero() const
; 181  : 	{
; 182  : 		return gen::IsZero( x*x + y*y + z*z );

	movaps	xmm1, xmm4

; 104  : 			z = v.z;

	movss	DWORD PTR _axisZ$1$[ebp], xmm4

; 105  : 		}
; 106  : 		return *this;
; 107  : 	}
; 108  : 
; 109  : 
; 110  : 	/*-----------------------------------------------------------------------------------------
; 111  : 		Setters
; 112  : 	-----------------------------------------------------------------------------------------*/
; 113  : 
; 114  : 	// Set all three vector components
; 115  :     void Set
; 116  : 	(
; 117  : 		const TFloat32 xIn,
; 118  : 		const TFloat32 yIn,
; 119  : 		const TFloat32 zIn
; 120  : 	)
; 121  : 	{
; 122  : 		x = xIn;
; 123  : 		y = yIn;
; 124  : 		z = zIn;
; 125  : 	}
; 126  : 
; 127  : 	// Set the vector through a pointer to three floats
; 128  :     void Set( const TFloat32* pfElts )
; 129  : 	{
; 130  : 		x = pfElts[0];
; 131  : 		y = pfElts[1];
; 132  : 		z = pfElts[2];
; 133  : 	}
; 134  : 
; 135  : 	// Set as vector between two points (p1 to p2)
; 136  :     void Set
; 137  : 	(
; 138  : 		const CVector3& p1,
; 139  : 		const CVector3& p2
; 140  : 	)
; 141  : 	{
; 142  : 		x = p2.x - p1.x;
; 143  : 		y = p2.y - p1.y;
; 144  : 		z = p2.z - p1.z;
; 145  : 	}
; 146  : 
; 147  : 	// Set the vector to (0,0,0)
; 148  :     void SetZero()
; 149  : 	{
; 150  : 		x = y = z = 0.0f;
; 151  : 	}
; 152  : 
; 153  : 
; 154  : 	/*-----------------------------------------------------------------------------------------
; 155  : 		Array access
; 156  : 	-----------------------------------------------------------------------------------------*/
; 157  : 
; 158  : 	// Access the x, y & z components in array style (i.e. v[0], v[1], v[2] same as v.x, v.y, v.z)
; 159  : 	// No validation on index
; 160  :     TFloat32& operator[]( const TUInt32 index )
; 161  : 	{
; 162  : 		return (&x)[index];
; 163  : 	}
; 164  : 
; 165  : 	// Access the x, y & z elements in array style - const result
; 166  : 	// No validation on index
; 167  : 	const TFloat32& operator[]( const TUInt32 index ) const
; 168  : 	{
; 169  : 		return (&x)[index];
; 170  : 	}
; 171  : 
; 172  : 
; 173  : 	/*-----------------------------------------------------------------------------------------
; 174  : 		Comparisons
; 175  : 	-----------------------------------------------------------------------------------------*/
; 176  : 	// Equality operators defined as non-member operations after the class definition
; 177  : 
; 178  : 	// Test if the vector is zero length (i.e. = (0,0,0))
; 179  : 	// Uses BaseMath.h float approximation function 'IsZero' with default epsilon (margin of error)
; 180  : 	bool IsZero() const
; 181  : 	{
; 182  : 		return gen::IsZero( x*x + y*y + z*z );

	movaps	xmm0, xmm5
	mulss	xmm1, xmm4
	mulss	xmm0, xmm5

; 104  : 			z = v.z;

	movss	DWORD PTR _axisZ$3$[ebp], xmm5
	movss	DWORD PTR _axisZ$5$[ebp], xmm6

; 105  : 		}
; 106  : 		return *this;
; 107  : 	}
; 108  : 
; 109  : 
; 110  : 	/*-----------------------------------------------------------------------------------------
; 111  : 		Setters
; 112  : 	-----------------------------------------------------------------------------------------*/
; 113  : 
; 114  : 	// Set all three vector components
; 115  :     void Set
; 116  : 	(
; 117  : 		const TFloat32 xIn,
; 118  : 		const TFloat32 yIn,
; 119  : 		const TFloat32 zIn
; 120  : 	)
; 121  : 	{
; 122  : 		x = xIn;
; 123  : 		y = yIn;
; 124  : 		z = zIn;
; 125  : 	}
; 126  : 
; 127  : 	// Set the vector through a pointer to three floats
; 128  :     void Set( const TFloat32* pfElts )
; 129  : 	{
; 130  : 		x = pfElts[0];
; 131  : 		y = pfElts[1];
; 132  : 		z = pfElts[2];
; 133  : 	}
; 134  : 
; 135  : 	// Set as vector between two points (p1 to p2)
; 136  :     void Set
; 137  : 	(
; 138  : 		const CVector3& p1,
; 139  : 		const CVector3& p2
; 140  : 	)
; 141  : 	{
; 142  : 		x = p2.x - p1.x;
; 143  : 		y = p2.y - p1.y;
; 144  : 		z = p2.z - p1.z;
; 145  : 	}
; 146  : 
; 147  : 	// Set the vector to (0,0,0)
; 148  :     void SetZero()
; 149  : 	{
; 150  : 		x = y = z = 0.0f;
; 151  : 	}
; 152  : 
; 153  : 
; 154  : 	/*-----------------------------------------------------------------------------------------
; 155  : 		Array access
; 156  : 	-----------------------------------------------------------------------------------------*/
; 157  : 
; 158  : 	// Access the x, y & z components in array style (i.e. v[0], v[1], v[2] same as v.x, v.y, v.z)
; 159  : 	// No validation on index
; 160  :     TFloat32& operator[]( const TUInt32 index )
; 161  : 	{
; 162  : 		return (&x)[index];
; 163  : 	}
; 164  : 
; 165  : 	// Access the x, y & z elements in array style - const result
; 166  : 	// No validation on index
; 167  : 	const TFloat32& operator[]( const TUInt32 index ) const
; 168  : 	{
; 169  : 		return (&x)[index];
; 170  : 	}
; 171  : 
; 172  : 
; 173  : 	/*-----------------------------------------------------------------------------------------
; 174  : 		Comparisons
; 175  : 	-----------------------------------------------------------------------------------------*/
; 176  : 	// Equality operators defined as non-member operations after the class definition
; 177  : 
; 178  : 	// Test if the vector is zero length (i.e. = (0,0,0))
; 179  : 	// Uses BaseMath.h float approximation function 'IsZero' with default epsilon (margin of error)
; 180  : 	bool IsZero() const
; 181  : 	{
; 182  : 		return gen::IsZero( x*x + y*y + z*z );

	addss	xmm1, xmm0
	movaps	xmm0, xmm6
	mulss	xmm0, xmm6
	addss	xmm1, xmm0
	xorps	xmm0, xmm0
; File c:\program files (x86)\microsoft visual studio 12.0\vc\include\math.h

; 687  :     return (float)fabs(_X);

	cvtss2sd xmm0, xmm1
	andpd	xmm0, QWORD PTR __xmm@7fffffffffffffff7fffffffffffffff
	cvtpd2ps xmm1, xmm0
; File c:\users\simon\documents\github\post-processing\import\math\basemath.h

; 292  : 	return Abs( x ) < fEpsilon;

	movss	xmm0, DWORD PTR __real@350637bd
	comiss	xmm0, xmm1
; File c:\users\simon\documents\github\post-processing\import\math\cmatrix4x4.cpp

; 2900 : 		if (axisZ.IsZero()) return CMatrix4x4( position );

	jbe	SHORT $LN5@MatrixFace
$LN93@MatrixFace:
	push	DWORD PTR _position$[ebp]
	mov	ecx, DWORD PTR ___$ReturnUdt$[ebp]
	call	??0CMatrix4x4@gen@@QAE@ABVCVector3@1@@Z	; gen::CMatrix4x4::CMatrix4x4

; 2914 : 	return CMatrix4x4( axisX, axisY, axisZ, position );

	mov	eax, DWORD PTR ___$ReturnUdt$[ebp]
	pop	esi

; 2915 : }

	mov	esp, ebp
	pop	ebp
	ret	0
$LN5@MatrixFace:
; File c:\users\simon\documents\github\post-processing\import\math\cvector3.h

; 464  : 	return CVector3(v1.y*v2.z - v1.z*v2.y, v1.z*v2.x - v1.x*v2.z, v1.x*v2.y - v1.y*v2.x);

	mov	eax, DWORD PTR _up$[ebp]
	movss	xmm3, DWORD PTR [eax+4]
	movss	xmm2, DWORD PTR [eax+8]
	movaps	xmm1, xmm3
	movaps	xmm0, xmm2
	mulss	xmm1, xmm6
	mulss	xmm0, xmm5
	mulss	xmm2, xmm4
	subss	xmm1, xmm0
	mulss	xmm3, xmm4

; 51   : 	{}

	movss	DWORD PTR $T6[ebp], xmm1

; 464  : 	return CVector3(v1.y*v2.z - v1.z*v2.y, v1.z*v2.x - v1.x*v2.z, v1.x*v2.y - v1.y*v2.x);

	movss	xmm1, DWORD PTR [eax]
; File c:\users\simon\documents\github\post-processing\import\math\cmatrix4x4.cpp

; 2901 : 		axisX = Normalise( Cross( up, axisZ ) );

	lea	eax, DWORD PTR $T6[ebp]
; File c:\users\simon\documents\github\post-processing\import\math\cvector3.h

; 464  : 	return CVector3(v1.y*v2.z - v1.z*v2.y, v1.z*v2.x - v1.x*v2.z, v1.x*v2.y - v1.y*v2.x);

	movaps	xmm0, xmm1
	mulss	xmm1, xmm5
; File c:\users\simon\documents\github\post-processing\import\math\cmatrix4x4.cpp

; 2901 : 		axisX = Normalise( Cross( up, axisZ ) );

	push	eax
; File c:\users\simon\documents\github\post-processing\import\math\cvector3.h

; 464  : 	return CVector3(v1.y*v2.z - v1.z*v2.y, v1.z*v2.x - v1.x*v2.z, v1.x*v2.y - v1.y*v2.x);

	mulss	xmm0, xmm6
; File c:\users\simon\documents\github\post-processing\import\math\cmatrix4x4.cpp

; 2901 : 		axisX = Normalise( Cross( up, axisZ ) );

	lea	eax, DWORD PTR $T3[ebp]
	push	eax
; File c:\users\simon\documents\github\post-processing\import\math\cvector3.h

; 464  : 	return CVector3(v1.y*v2.z - v1.z*v2.y, v1.z*v2.x - v1.x*v2.z, v1.x*v2.y - v1.y*v2.x);

	subss	xmm1, xmm3
	subss	xmm2, xmm0

; 51   : 	{}

	movss	DWORD PTR $T6[ebp+8], xmm1
	movss	DWORD PTR $T6[ebp+4], xmm2
; File c:\users\simon\documents\github\post-processing\import\math\cmatrix4x4.cpp

; 2901 : 		axisX = Normalise( Cross( up, axisZ ) );

	call	?Normalise@gen@@YA?AVCVector3@1@ABV21@@Z ; gen::Normalise
; File c:\users\simon\documents\github\post-processing\import\math\cvector3.h

; 100  : 		if ( this != &v )

	lea	ecx, DWORD PTR _axisX$[ebp]
; File c:\users\simon\documents\github\post-processing\import\math\cmatrix4x4.cpp

; 2901 : 		axisX = Normalise( Cross( up, axisZ ) );

	add	esp, 8
; File c:\users\simon\documents\github\post-processing\import\math\cvector3.h

; 100  : 		if ( this != &v )

	cmp	ecx, eax
	je	SHORT $LN86@MatrixFace

; 102  : 			x = v.x;

	movss	xmm5, DWORD PTR [eax]

; 103  : 			y = v.y;

	movss	xmm2, DWORD PTR [eax+4]

; 104  : 			z = v.z;

	movss	xmm6, DWORD PTR [eax+8]
	movss	DWORD PTR _axisX$[ebp], xmm5
	movss	DWORD PTR _axisX$[ebp+4], xmm2
	movss	DWORD PTR _axisX$[ebp+8], xmm6
	jmp	SHORT $LN30@MatrixFace
$LN86@MatrixFace:
	movss	xmm6, DWORD PTR _axisX$[ebp+8]
	movss	xmm2, DWORD PTR _axisX$[ebp+4]
	movss	xmm5, DWORD PTR _axisX$[ebp]
$LN30@MatrixFace:

; 105  : 		}
; 106  : 		return *this;
; 107  : 	}
; 108  : 
; 109  : 
; 110  : 	/*-----------------------------------------------------------------------------------------
; 111  : 		Setters
; 112  : 	-----------------------------------------------------------------------------------------*/
; 113  : 
; 114  : 	// Set all three vector components
; 115  :     void Set
; 116  : 	(
; 117  : 		const TFloat32 xIn,
; 118  : 		const TFloat32 yIn,
; 119  : 		const TFloat32 zIn
; 120  : 	)
; 121  : 	{
; 122  : 		x = xIn;
; 123  : 		y = yIn;
; 124  : 		z = zIn;
; 125  : 	}
; 126  : 
; 127  : 	// Set the vector through a pointer to three floats
; 128  :     void Set( const TFloat32* pfElts )
; 129  : 	{
; 130  : 		x = pfElts[0];
; 131  : 		y = pfElts[1];
; 132  : 		z = pfElts[2];
; 133  : 	}
; 134  : 
; 135  : 	// Set as vector between two points (p1 to p2)
; 136  :     void Set
; 137  : 	(
; 138  : 		const CVector3& p1,
; 139  : 		const CVector3& p2
; 140  : 	)
; 141  : 	{
; 142  : 		x = p2.x - p1.x;
; 143  : 		y = p2.y - p1.y;
; 144  : 		z = p2.z - p1.z;
; 145  : 	}
; 146  : 
; 147  : 	// Set the vector to (0,0,0)
; 148  :     void SetZero()
; 149  : 	{
; 150  : 		x = y = z = 0.0f;
; 151  : 	}
; 152  : 
; 153  : 
; 154  : 	/*-----------------------------------------------------------------------------------------
; 155  : 		Array access
; 156  : 	-----------------------------------------------------------------------------------------*/
; 157  : 
; 158  : 	// Access the x, y & z components in array style (i.e. v[0], v[1], v[2] same as v.x, v.y, v.z)
; 159  : 	// No validation on index
; 160  :     TFloat32& operator[]( const TUInt32 index )
; 161  : 	{
; 162  : 		return (&x)[index];
; 163  : 	}
; 164  : 
; 165  : 	// Access the x, y & z elements in array style - const result
; 166  : 	// No validation on index
; 167  : 	const TFloat32& operator[]( const TUInt32 index ) const
; 168  : 	{
; 169  : 		return (&x)[index];
; 170  : 	}
; 171  : 
; 172  : 
; 173  : 	/*-----------------------------------------------------------------------------------------
; 174  : 		Comparisons
; 175  : 	-----------------------------------------------------------------------------------------*/
; 176  : 	// Equality operators defined as non-member operations after the class definition
; 177  : 
; 178  : 	// Test if the vector is zero length (i.e. = (0,0,0))
; 179  : 	// Uses BaseMath.h float approximation function 'IsZero' with default epsilon (margin of error)
; 180  : 	bool IsZero() const
; 181  : 	{
; 182  : 		return gen::IsZero( x*x + y*y + z*z );

	movaps	xmm1, xmm2
	movaps	xmm0, xmm5
	mulss	xmm0, xmm5
	mulss	xmm1, xmm2
	addss	xmm1, xmm0
	movaps	xmm0, xmm6
	mulss	xmm0, xmm6
	addss	xmm1, xmm0
	xorps	xmm0, xmm0
; File c:\program files (x86)\microsoft visual studio 12.0\vc\include\math.h

; 687  :     return (float)fabs(_X);

	cvtss2sd xmm0, xmm1
	andpd	xmm0, QWORD PTR __xmm@7fffffffffffffff7fffffffffffffff
	cvtpd2ps xmm1, xmm0
; File c:\users\simon\documents\github\post-processing\import\math\basemath.h

; 292  : 	return Abs( x ) < fEpsilon;

	movss	xmm0, DWORD PTR __real@350637bd
	comiss	xmm0, xmm1
; File c:\users\simon\documents\github\post-processing\import\math\cmatrix4x4.cpp

; 2902 : 		if (axisX.IsZero()) return CMatrix4x4( position );

	ja	$LN93@MatrixFace
; File c:\users\simon\documents\github\post-processing\import\math\cvector3.h

; 464  : 	return CVector3(v1.y*v2.z - v1.z*v2.y, v1.z*v2.x - v1.x*v2.z, v1.x*v2.y - v1.y*v2.x);

	movaps	xmm0, xmm2
	movaps	xmm1, xmm6
	mulss	xmm0, DWORD PTR _axisZ$5$[ebp]
	mulss	xmm1, DWORD PTR _axisZ$3$[ebp]
	mulss	xmm6, DWORD PTR _axisZ$1$[ebp]
	mulss	xmm2, DWORD PTR _axisZ$1$[ebp]
	subss	xmm1, xmm0
	movaps	xmm0, xmm5
	mulss	xmm5, DWORD PTR _axisZ$3$[ebp]
	mulss	xmm0, DWORD PTR _axisZ$5$[ebp]
	subss	xmm2, xmm5
	subss	xmm0, xmm6

; 104  : 			z = v.z;

	movss	DWORD PTR _axisY$[ebp+8], xmm2
	movss	DWORD PTR _axisY$[ebp+4], xmm0
; File c:\users\simon\documents\github\post-processing\import\math\cmatrix4x4.cpp

; 2905 : 	else

	jmp	$LN91@MatrixFace
$LN6@MatrixFace:
; File c:\users\simon\documents\github\post-processing\import\math\cvector3.h

; 401  : 	return CVector3(-v.x, -v.y, -v.z);

	mov	eax, DWORD PTR _direction$[ebp]
	movss	xmm1, DWORD PTR __xmm@80000000800000008000000080000000
	movss	xmm0, DWORD PTR [eax]
	xorps	xmm0, xmm1

; 51   : 	{}

	movss	DWORD PTR $T5[ebp], xmm0

; 401  : 	return CVector3(-v.x, -v.y, -v.z);

	movss	xmm0, DWORD PTR [eax+4]
	xorps	xmm0, xmm1

; 51   : 	{}

	movss	DWORD PTR $T5[ebp+4], xmm0

; 401  : 	return CVector3(-v.x, -v.y, -v.z);

	movss	xmm0, DWORD PTR [eax+8]
; File c:\users\simon\documents\github\post-processing\import\math\cmatrix4x4.cpp

; 2907 : 		axisZ = Normalise( -direction );

	lea	eax, DWORD PTR $T5[ebp]
	push	eax
	lea	eax, DWORD PTR $T2[ebp]
; File c:\users\simon\documents\github\post-processing\import\math\cvector3.h

; 401  : 	return CVector3(-v.x, -v.y, -v.z);

	xorps	xmm0, xmm1
; File c:\users\simon\documents\github\post-processing\import\math\cmatrix4x4.cpp

; 2907 : 		axisZ = Normalise( -direction );

	push	eax
; File c:\users\simon\documents\github\post-processing\import\math\cvector3.h

; 51   : 	{}

	movss	DWORD PTR $T5[ebp+8], xmm0
; File c:\users\simon\documents\github\post-processing\import\math\cmatrix4x4.cpp

; 2907 : 		axisZ = Normalise( -direction );

	call	?Normalise@gen@@YA?AVCVector3@1@ABV21@@Z ; gen::Normalise
; File c:\users\simon\documents\github\post-processing\import\math\cvector3.h

; 100  : 		if ( this != &v )

	lea	ecx, DWORD PTR _axisZ$[ebp]
; File c:\users\simon\documents\github\post-processing\import\math\cmatrix4x4.cpp

; 2907 : 		axisZ = Normalise( -direction );

	add	esp, 8
; File c:\users\simon\documents\github\post-processing\import\math\cvector3.h

; 100  : 		if ( this != &v )

	cmp	ecx, eax
	je	SHORT $LN87@MatrixFace

; 102  : 			x = v.x;

	movss	xmm4, DWORD PTR [eax]

; 103  : 			y = v.y;

	movss	xmm5, DWORD PTR [eax+4]

; 104  : 			z = v.z;

	movss	xmm6, DWORD PTR [eax+8]
	movss	DWORD PTR _axisZ$[ebp], xmm4
	movss	DWORD PTR _axisZ$[ebp+4], xmm5
	movss	DWORD PTR _axisZ$[ebp+8], xmm6
	jmp	SHORT $LN92@MatrixFace
$LN87@MatrixFace:
	movss	xmm6, DWORD PTR _axisZ$[ebp+8]
	movss	xmm5, DWORD PTR _axisZ$[ebp+4]
	movss	xmm4, DWORD PTR _axisZ$[ebp]
$LN92@MatrixFace:

; 105  : 		}
; 106  : 		return *this;
; 107  : 	}
; 108  : 
; 109  : 
; 110  : 	/*-----------------------------------------------------------------------------------------
; 111  : 		Setters
; 112  : 	-----------------------------------------------------------------------------------------*/
; 113  : 
; 114  : 	// Set all three vector components
; 115  :     void Set
; 116  : 	(
; 117  : 		const TFloat32 xIn,
; 118  : 		const TFloat32 yIn,
; 119  : 		const TFloat32 zIn
; 120  : 	)
; 121  : 	{
; 122  : 		x = xIn;
; 123  : 		y = yIn;
; 124  : 		z = zIn;
; 125  : 	}
; 126  : 
; 127  : 	// Set the vector through a pointer to three floats
; 128  :     void Set( const TFloat32* pfElts )
; 129  : 	{
; 130  : 		x = pfElts[0];
; 131  : 		y = pfElts[1];
; 132  : 		z = pfElts[2];
; 133  : 	}
; 134  : 
; 135  : 	// Set as vector between two points (p1 to p2)
; 136  :     void Set
; 137  : 	(
; 138  : 		const CVector3& p1,
; 139  : 		const CVector3& p2
; 140  : 	)
; 141  : 	{
; 142  : 		x = p2.x - p1.x;
; 143  : 		y = p2.y - p1.y;
; 144  : 		z = p2.z - p1.z;
; 145  : 	}
; 146  : 
; 147  : 	// Set the vector to (0,0,0)
; 148  :     void SetZero()
; 149  : 	{
; 150  : 		x = y = z = 0.0f;
; 151  : 	}
; 152  : 
; 153  : 
; 154  : 	/*-----------------------------------------------------------------------------------------
; 155  : 		Array access
; 156  : 	-----------------------------------------------------------------------------------------*/
; 157  : 
; 158  : 	// Access the x, y & z components in array style (i.e. v[0], v[1], v[2] same as v.x, v.y, v.z)
; 159  : 	// No validation on index
; 160  :     TFloat32& operator[]( const TUInt32 index )
; 161  : 	{
; 162  : 		return (&x)[index];
; 163  : 	}
; 164  : 
; 165  : 	// Access the x, y & z elements in array style - const result
; 166  : 	// No validation on index
; 167  : 	const TFloat32& operator[]( const TUInt32 index ) const
; 168  : 	{
; 169  : 		return (&x)[index];
; 170  : 	}
; 171  : 
; 172  : 
; 173  : 	/*-----------------------------------------------------------------------------------------
; 174  : 		Comparisons
; 175  : 	-----------------------------------------------------------------------------------------*/
; 176  : 	// Equality operators defined as non-member operations after the class definition
; 177  : 
; 178  : 	// Test if the vector is zero length (i.e. = (0,0,0))
; 179  : 	// Uses BaseMath.h float approximation function 'IsZero' with default epsilon (margin of error)
; 180  : 	bool IsZero() const
; 181  : 	{
; 182  : 		return gen::IsZero( x*x + y*y + z*z );

	movaps	xmm1, xmm4

; 104  : 			z = v.z;

	movss	DWORD PTR _axisZ$2$[ebp], xmm4

; 105  : 		}
; 106  : 		return *this;
; 107  : 	}
; 108  : 
; 109  : 
; 110  : 	/*-----------------------------------------------------------------------------------------
; 111  : 		Setters
; 112  : 	-----------------------------------------------------------------------------------------*/
; 113  : 
; 114  : 	// Set all three vector components
; 115  :     void Set
; 116  : 	(
; 117  : 		const TFloat32 xIn,
; 118  : 		const TFloat32 yIn,
; 119  : 		const TFloat32 zIn
; 120  : 	)
; 121  : 	{
; 122  : 		x = xIn;
; 123  : 		y = yIn;
; 124  : 		z = zIn;
; 125  : 	}
; 126  : 
; 127  : 	// Set the vector through a pointer to three floats
; 128  :     void Set( const TFloat32* pfElts )
; 129  : 	{
; 130  : 		x = pfElts[0];
; 131  : 		y = pfElts[1];
; 132  : 		z = pfElts[2];
; 133  : 	}
; 134  : 
; 135  : 	// Set as vector between two points (p1 to p2)
; 136  :     void Set
; 137  : 	(
; 138  : 		const CVector3& p1,
; 139  : 		const CVector3& p2
; 140  : 	)
; 141  : 	{
; 142  : 		x = p2.x - p1.x;
; 143  : 		y = p2.y - p1.y;
; 144  : 		z = p2.z - p1.z;
; 145  : 	}
; 146  : 
; 147  : 	// Set the vector to (0,0,0)
; 148  :     void SetZero()
; 149  : 	{
; 150  : 		x = y = z = 0.0f;
; 151  : 	}
; 152  : 
; 153  : 
; 154  : 	/*-----------------------------------------------------------------------------------------
; 155  : 		Array access
; 156  : 	-----------------------------------------------------------------------------------------*/
; 157  : 
; 158  : 	// Access the x, y & z components in array style (i.e. v[0], v[1], v[2] same as v.x, v.y, v.z)
; 159  : 	// No validation on index
; 160  :     TFloat32& operator[]( const TUInt32 index )
; 161  : 	{
; 162  : 		return (&x)[index];
; 163  : 	}
; 164  : 
; 165  : 	// Access the x, y & z elements in array style - const result
; 166  : 	// No validation on index
; 167  : 	const TFloat32& operator[]( const TUInt32 index ) const
; 168  : 	{
; 169  : 		return (&x)[index];
; 170  : 	}
; 171  : 
; 172  : 
; 173  : 	/*-----------------------------------------------------------------------------------------
; 174  : 		Comparisons
; 175  : 	-----------------------------------------------------------------------------------------*/
; 176  : 	// Equality operators defined as non-member operations after the class definition
; 177  : 
; 178  : 	// Test if the vector is zero length (i.e. = (0,0,0))
; 179  : 	// Uses BaseMath.h float approximation function 'IsZero' with default epsilon (margin of error)
; 180  : 	bool IsZero() const
; 181  : 	{
; 182  : 		return gen::IsZero( x*x + y*y + z*z );

	movaps	xmm0, xmm5
	mulss	xmm1, xmm4
	mulss	xmm0, xmm5

; 104  : 			z = v.z;

	movss	DWORD PTR _axisZ$4$[ebp], xmm5
	movss	DWORD PTR _axisZ$6$[ebp], xmm6

; 105  : 		}
; 106  : 		return *this;
; 107  : 	}
; 108  : 
; 109  : 
; 110  : 	/*-----------------------------------------------------------------------------------------
; 111  : 		Setters
; 112  : 	-----------------------------------------------------------------------------------------*/
; 113  : 
; 114  : 	// Set all three vector components
; 115  :     void Set
; 116  : 	(
; 117  : 		const TFloat32 xIn,
; 118  : 		const TFloat32 yIn,
; 119  : 		const TFloat32 zIn
; 120  : 	)
; 121  : 	{
; 122  : 		x = xIn;
; 123  : 		y = yIn;
; 124  : 		z = zIn;
; 125  : 	}
; 126  : 
; 127  : 	// Set the vector through a pointer to three floats
; 128  :     void Set( const TFloat32* pfElts )
; 129  : 	{
; 130  : 		x = pfElts[0];
; 131  : 		y = pfElts[1];
; 132  : 		z = pfElts[2];
; 133  : 	}
; 134  : 
; 135  : 	// Set as vector between two points (p1 to p2)
; 136  :     void Set
; 137  : 	(
; 138  : 		const CVector3& p1,
; 139  : 		const CVector3& p2
; 140  : 	)
; 141  : 	{
; 142  : 		x = p2.x - p1.x;
; 143  : 		y = p2.y - p1.y;
; 144  : 		z = p2.z - p1.z;
; 145  : 	}
; 146  : 
; 147  : 	// Set the vector to (0,0,0)
; 148  :     void SetZero()
; 149  : 	{
; 150  : 		x = y = z = 0.0f;
; 151  : 	}
; 152  : 
; 153  : 
; 154  : 	/*-----------------------------------------------------------------------------------------
; 155  : 		Array access
; 156  : 	-----------------------------------------------------------------------------------------*/
; 157  : 
; 158  : 	// Access the x, y & z components in array style (i.e. v[0], v[1], v[2] same as v.x, v.y, v.z)
; 159  : 	// No validation on index
; 160  :     TFloat32& operator[]( const TUInt32 index )
; 161  : 	{
; 162  : 		return (&x)[index];
; 163  : 	}
; 164  : 
; 165  : 	// Access the x, y & z elements in array style - const result
; 166  : 	// No validation on index
; 167  : 	const TFloat32& operator[]( const TUInt32 index ) const
; 168  : 	{
; 169  : 		return (&x)[index];
; 170  : 	}
; 171  : 
; 172  : 
; 173  : 	/*-----------------------------------------------------------------------------------------
; 174  : 		Comparisons
; 175  : 	-----------------------------------------------------------------------------------------*/
; 176  : 	// Equality operators defined as non-member operations after the class definition
; 177  : 
; 178  : 	// Test if the vector is zero length (i.e. = (0,0,0))
; 179  : 	// Uses BaseMath.h float approximation function 'IsZero' with default epsilon (margin of error)
; 180  : 	bool IsZero() const
; 181  : 	{
; 182  : 		return gen::IsZero( x*x + y*y + z*z );

	addss	xmm1, xmm0
	movaps	xmm0, xmm6
	mulss	xmm0, xmm6
	addss	xmm1, xmm0
	xorps	xmm0, xmm0
; File c:\program files (x86)\microsoft visual studio 12.0\vc\include\math.h

; 687  :     return (float)fabs(_X);

	cvtss2sd xmm0, xmm1
	andpd	xmm0, QWORD PTR __xmm@7fffffffffffffff7fffffffffffffff
	cvtpd2ps xmm1, xmm0
; File c:\users\simon\documents\github\post-processing\import\math\basemath.h

; 292  : 	return Abs( x ) < fEpsilon;

	movss	xmm0, DWORD PTR __real@350637bd
	comiss	xmm0, xmm1
; File c:\users\simon\documents\github\post-processing\import\math\cmatrix4x4.cpp

; 2908 : 		if (axisZ.IsZero()) return CMatrix4x4( position );

	ja	$LN93@MatrixFace
; File c:\users\simon\documents\github\post-processing\import\math\cvector3.h

; 464  : 	return CVector3(v1.y*v2.z - v1.z*v2.y, v1.z*v2.x - v1.x*v2.z, v1.x*v2.y - v1.y*v2.x);

	mov	eax, DWORD PTR _up$[ebp]
	movss	xmm2, DWORD PTR [eax+8]
	movss	xmm3, DWORD PTR [eax+4]
	movaps	xmm1, xmm2
	movaps	xmm0, xmm3
	mulss	xmm1, xmm5
	mulss	xmm0, xmm6
	mulss	xmm2, xmm4
	subss	xmm1, xmm0
	mulss	xmm3, xmm4

; 51   : 	{}

	movss	DWORD PTR $T4[ebp], xmm1

; 464  : 	return CVector3(v1.y*v2.z - v1.z*v2.y, v1.z*v2.x - v1.x*v2.z, v1.x*v2.y - v1.y*v2.x);

	movss	xmm1, DWORD PTR [eax]
; File c:\users\simon\documents\github\post-processing\import\math\cmatrix4x4.cpp

; 2909 : 		axisX = Normalise( Cross( axisZ, up ) );

	lea	eax, DWORD PTR $T4[ebp]
; File c:\users\simon\documents\github\post-processing\import\math\cvector3.h

; 464  : 	return CVector3(v1.y*v2.z - v1.z*v2.y, v1.z*v2.x - v1.x*v2.z, v1.x*v2.y - v1.y*v2.x);

	movaps	xmm0, xmm1
	mulss	xmm1, xmm5
; File c:\users\simon\documents\github\post-processing\import\math\cmatrix4x4.cpp

; 2909 : 		axisX = Normalise( Cross( axisZ, up ) );

	push	eax
; File c:\users\simon\documents\github\post-processing\import\math\cvector3.h

; 464  : 	return CVector3(v1.y*v2.z - v1.z*v2.y, v1.z*v2.x - v1.x*v2.z, v1.x*v2.y - v1.y*v2.x);

	mulss	xmm0, xmm6
; File c:\users\simon\documents\github\post-processing\import\math\cmatrix4x4.cpp

; 2909 : 		axisX = Normalise( Cross( axisZ, up ) );

	lea	eax, DWORD PTR $T1[ebp]
	push	eax
; File c:\users\simon\documents\github\post-processing\import\math\cvector3.h

; 464  : 	return CVector3(v1.y*v2.z - v1.z*v2.y, v1.z*v2.x - v1.x*v2.z, v1.x*v2.y - v1.y*v2.x);

	subss	xmm3, xmm1
	subss	xmm0, xmm2

; 51   : 	{}

	movss	DWORD PTR $T4[ebp+8], xmm3
	movss	DWORD PTR $T4[ebp+4], xmm0
; File c:\users\simon\documents\github\post-processing\import\math\cmatrix4x4.cpp

; 2909 : 		axisX = Normalise( Cross( axisZ, up ) );

	call	?Normalise@gen@@YA?AVCVector3@1@ABV21@@Z ; gen::Normalise
; File c:\users\simon\documents\github\post-processing\import\math\cvector3.h

; 100  : 		if ( this != &v )

	lea	ecx, DWORD PTR _axisX$[ebp]
; File c:\users\simon\documents\github\post-processing\import\math\cmatrix4x4.cpp

; 2909 : 		axisX = Normalise( Cross( axisZ, up ) );

	add	esp, 8
; File c:\users\simon\documents\github\post-processing\import\math\cvector3.h

; 100  : 		if ( this != &v )

	cmp	ecx, eax
	je	SHORT $LN88@MatrixFace

; 102  : 			x = v.x;

	movss	xmm3, DWORD PTR [eax]

; 103  : 			y = v.y;

	movss	xmm7, DWORD PTR [eax+4]

; 104  : 			z = v.z;

	movss	xmm2, DWORD PTR [eax+8]
	movss	DWORD PTR _axisX$[ebp], xmm3
	movss	DWORD PTR _axisX$[ebp+4], xmm7
	movss	DWORD PTR _axisX$[ebp+8], xmm2
	jmp	SHORT $LN67@MatrixFace
$LN88@MatrixFace:
	movss	xmm2, DWORD PTR _axisX$[ebp+8]
	movss	xmm7, DWORD PTR _axisX$[ebp+4]
	movss	xmm3, DWORD PTR _axisX$[ebp]
$LN67@MatrixFace:

; 105  : 		}
; 106  : 		return *this;
; 107  : 	}
; 108  : 
; 109  : 
; 110  : 	/*-----------------------------------------------------------------------------------------
; 111  : 		Setters
; 112  : 	-----------------------------------------------------------------------------------------*/
; 113  : 
; 114  : 	// Set all three vector components
; 115  :     void Set
; 116  : 	(
; 117  : 		const TFloat32 xIn,
; 118  : 		const TFloat32 yIn,
; 119  : 		const TFloat32 zIn
; 120  : 	)
; 121  : 	{
; 122  : 		x = xIn;
; 123  : 		y = yIn;
; 124  : 		z = zIn;
; 125  : 	}
; 126  : 
; 127  : 	// Set the vector through a pointer to three floats
; 128  :     void Set( const TFloat32* pfElts )
; 129  : 	{
; 130  : 		x = pfElts[0];
; 131  : 		y = pfElts[1];
; 132  : 		z = pfElts[2];
; 133  : 	}
; 134  : 
; 135  : 	// Set as vector between two points (p1 to p2)
; 136  :     void Set
; 137  : 	(
; 138  : 		const CVector3& p1,
; 139  : 		const CVector3& p2
; 140  : 	)
; 141  : 	{
; 142  : 		x = p2.x - p1.x;
; 143  : 		y = p2.y - p1.y;
; 144  : 		z = p2.z - p1.z;
; 145  : 	}
; 146  : 
; 147  : 	// Set the vector to (0,0,0)
; 148  :     void SetZero()
; 149  : 	{
; 150  : 		x = y = z = 0.0f;
; 151  : 	}
; 152  : 
; 153  : 
; 154  : 	/*-----------------------------------------------------------------------------------------
; 155  : 		Array access
; 156  : 	-----------------------------------------------------------------------------------------*/
; 157  : 
; 158  : 	// Access the x, y & z components in array style (i.e. v[0], v[1], v[2] same as v.x, v.y, v.z)
; 159  : 	// No validation on index
; 160  :     TFloat32& operator[]( const TUInt32 index )
; 161  : 	{
; 162  : 		return (&x)[index];
; 163  : 	}
; 164  : 
; 165  : 	// Access the x, y & z elements in array style - const result
; 166  : 	// No validation on index
; 167  : 	const TFloat32& operator[]( const TUInt32 index ) const
; 168  : 	{
; 169  : 		return (&x)[index];
; 170  : 	}
; 171  : 
; 172  : 
; 173  : 	/*-----------------------------------------------------------------------------------------
; 174  : 		Comparisons
; 175  : 	-----------------------------------------------------------------------------------------*/
; 176  : 	// Equality operators defined as non-member operations after the class definition
; 177  : 
; 178  : 	// Test if the vector is zero length (i.e. = (0,0,0))
; 179  : 	// Uses BaseMath.h float approximation function 'IsZero' with default epsilon (margin of error)
; 180  : 	bool IsZero() const
; 181  : 	{
; 182  : 		return gen::IsZero( x*x + y*y + z*z );

	movaps	xmm1, xmm7
	movaps	xmm0, xmm3
	mulss	xmm0, xmm3
	mulss	xmm1, xmm7
	addss	xmm1, xmm0
	movaps	xmm0, xmm2
	mulss	xmm0, xmm2
	addss	xmm1, xmm0
	xorps	xmm0, xmm0
; File c:\program files (x86)\microsoft visual studio 12.0\vc\include\math.h

; 687  :     return (float)fabs(_X);

	cvtss2sd xmm0, xmm1
	andpd	xmm0, QWORD PTR __xmm@7fffffffffffffff7fffffffffffffff
	cvtpd2ps xmm1, xmm0
; File c:\users\simon\documents\github\post-processing\import\math\basemath.h

; 292  : 	return Abs( x ) < fEpsilon;

	movss	xmm0, DWORD PTR __real@350637bd
	comiss	xmm0, xmm1
; File c:\users\simon\documents\github\post-processing\import\math\cmatrix4x4.cpp

; 2910 : 		if (axisX.IsZero()) return CMatrix4x4( position );

	ja	$LN93@MatrixFace
; File c:\users\simon\documents\github\post-processing\import\math\cvector3.h

; 464  : 	return CVector3(v1.y*v2.z - v1.z*v2.y, v1.z*v2.x - v1.x*v2.z, v1.x*v2.y - v1.y*v2.x);

	movaps	xmm0, xmm2
	movaps	xmm1, xmm7
	mulss	xmm0, DWORD PTR _axisZ$4$[ebp]
	mulss	xmm1, DWORD PTR _axisZ$6$[ebp]
	mulss	xmm2, DWORD PTR _axisZ$2$[ebp]
	mulss	xmm7, DWORD PTR _axisZ$2$[ebp]
	subss	xmm1, xmm0
	movaps	xmm0, xmm3
	mulss	xmm3, DWORD PTR _axisZ$4$[ebp]
	mulss	xmm0, DWORD PTR _axisZ$6$[ebp]
	subss	xmm3, xmm7
	subss	xmm2, xmm0

; 104  : 			z = v.z;

	movss	DWORD PTR _axisY$[ebp+8], xmm3
	movss	DWORD PTR _axisY$[ebp+4], xmm2
$LN91@MatrixFace:
; File c:\users\simon\documents\github\post-processing\import\math\cmatrix4x4.cpp

; 2914 : 	return CMatrix4x4( axisX, axisY, axisZ, position );

	mov	ecx, DWORD PTR ___$ReturnUdt$[ebp]
	lea	eax, DWORD PTR _axisZ$[ebp]
	push	1
	push	DWORD PTR _position$[ebp]
; File c:\users\simon\documents\github\post-processing\import\math\cvector3.h

; 102  : 			x = v.x;

	movss	DWORD PTR _axisY$[ebp], xmm1
; File c:\users\simon\documents\github\post-processing\import\math\cmatrix4x4.cpp

; 2914 : 	return CMatrix4x4( axisX, axisY, axisZ, position );

	push	eax
	lea	eax, DWORD PTR _axisY$[ebp]
	push	eax
	lea	eax, DWORD PTR _axisX$[ebp]
	push	eax
	call	??0CMatrix4x4@gen@@QAE@ABVCVector3@1@000_N@Z ; gen::CMatrix4x4::CMatrix4x4
	mov	eax, DWORD PTR ___$ReturnUdt$[ebp]
	pop	esi

; 2915 : }

	mov	esp, ebp
	pop	ebp
	ret	0
?MatrixFaceDirection@gen@@YA?AVCMatrix4x4@1@ABVCVector3@1@00_N@Z ENDP ; gen::MatrixFaceDirection
_TEXT	ENDS
; Function compile flags: /Ogtp
; File c:\users\simon\documents\github\post-processing\import\math\cmatrix4x4.cpp
; File c:\users\simon\documents\github\post-processing\import\math\cvector3.h
; File c:\users\simon\documents\github\post-processing\import\math\cmatrix4x4.cpp
; File c:\users\simon\documents\github\post-processing\import\math\cvector3.h
; File c:\users\simon\documents\github\post-processing\import\math\cmatrix4x4.cpp
; File c:\users\simon\documents\github\post-processing\import\math\cvector3.h
; File c:\users\simon\documents\github\post-processing\import\math\cmatrix4x4.cpp
; File c:\users\simon\documents\github\post-processing\import\math\cvector3.h
; File c:\users\simon\documents\github\post-processing\import\math\cmatrix4x4.cpp
; File c:\users\simon\documents\github\post-processing\import\math\cvector3.h
; File c:\users\simon\documents\github\post-processing\import\math\cmatrix4x4.cpp
; File c:\users\simon\documents\github\post-processing\import\math\cvector3.h
; File c:\users\simon\documents\github\post-processing\import\math\cmatrix4x4.cpp
; File c:\users\simon\documents\github\post-processing\import\math\cvector3.h
; File c:\program files (x86)\microsoft visual studio 12.0\vc\include\math.h
; File c:\users\simon\documents\github\post-processing\import\math\basemath.h
; File c:\users\simon\documents\github\post-processing\import\math\cmatrix4x4.cpp
; File c:\users\simon\documents\github\post-processing\import\math\cvector3.h
; File c:\users\simon\documents\github\post-processing\import\math\cmatrix4x4.cpp
; File c:\users\simon\documents\github\post-processing\import\math\cvector3.h
; File c:\users\simon\documents\github\post-processing\import\math\cmatrix4x4.cpp
; File c:\users\simon\documents\github\post-processing\import\math\cvector3.h
; File c:\users\simon\documents\github\post-processing\import\math\cmatrix4x4.cpp
; File c:\users\simon\documents\github\post-processing\import\math\cvector3.h
; File c:\users\simon\documents\github\post-processing\import\math\cmatrix4x4.cpp
; File c:\users\simon\documents\github\post-processing\import\math\cvector3.h
; File c:\users\simon\documents\github\post-processing\import\math\cmatrix4x4.cpp
; File c:\users\simon\documents\github\post-processing\import\math\cvector3.h
; File c:\program files (x86)\microsoft visual studio 12.0\vc\include\math.h
; File c:\users\simon\documents\github\post-processing\import\math\basemath.h
; File c:\users\simon\documents\github\post-processing\import\math\cmatrix4x4.cpp
; File c:\users\simon\documents\github\post-processing\import\math\cvector3.h
; File c:\users\simon\documents\github\post-processing\import\math\cmatrix4x4.cpp
; File c:\users\simon\documents\github\post-processing\import\math\cvector3.h
; File c:\users\simon\documents\github\post-processing\import\math\cmatrix4x4.cpp
; File c:\users\simon\documents\github\post-processing\import\math\cvector3.h
; File c:\users\simon\documents\github\post-processing\import\math\cmatrix4x4.cpp
; File c:\users\simon\documents\github\post-processing\import\math\cvector3.h
; File c:\users\simon\documents\github\post-processing\import\math\cmatrix4x4.cpp
; File c:\users\simon\documents\github\post-processing\import\math\cvector3.h
; File c:\program files (x86)\microsoft visual studio 12.0\vc\include\math.h
; File c:\users\simon\documents\github\post-processing\import\math\basemath.h
; File c:\users\simon\documents\github\post-processing\import\math\cmatrix4x4.cpp
; File c:\users\simon\documents\github\post-processing\import\math\cvector3.h
; File c:\users\simon\documents\github\post-processing\import\math\cmatrix4x4.cpp
; File c:\users\simon\documents\github\post-processing\import\math\cvector3.h
; File c:\users\simon\documents\github\post-processing\import\math\cmatrix4x4.cpp
; File c:\users\simon\documents\github\post-processing\import\math\cvector3.h
; File c:\users\simon\documents\github\post-processing\import\math\cmatrix4x4.cpp
; File c:\users\simon\documents\github\post-processing\import\math\cvector3.h
; File c:\users\simon\documents\github\post-processing\import\math\cmatrix4x4.cpp
; File c:\users\simon\documents\github\post-processing\import\math\cvector3.h
; File c:\users\simon\documents\github\post-processing\import\math\cmatrix4x4.cpp
; File c:\users\simon\documents\github\post-processing\import\math\cvector3.h
; File c:\program files (x86)\microsoft visual studio 12.0\vc\include\math.h
; File c:\users\simon\documents\github\post-processing\import\math\basemath.h
; File c:\users\simon\documents\github\post-processing\import\math\cmatrix4x4.cpp
; File c:\users\simon\documents\github\post-processing\import\math\cvector3.h
; File c:\users\simon\documents\github\post-processing\import\math\cmatrix4x4.cpp
; File c:\users\simon\documents\github\post-processing\import\math\cvector3.h
; File c:\users\simon\documents\github\post-processing\import\math\cmatrix4x4.cpp
;	COMDAT ?MatrixFaceTarget@gen@@YA?AVCMatrix4x4@1@ABVCVector3@1@00_N@Z
_TEXT	SEGMENT
$T1 = -68						; size = 12
$T2 = -68						; size = 12
$T3 = -68						; size = 12
$T4 = -68						; size = 12
$T5 = -56						; size = 12
$T6 = -56						; size = 12
$T7 = -56						; size = 12
$T8 = -56						; size = 12
_axisY$ = -44						; size = 12
_axisX$ = -32						; size = 12
_axisZ$ = -20						; size = 12
_axisZ$4$ = -8						; size = 4
_axisZ$1$ = -8						; size = 4
_axisZ$5$ = -4						; size = 4
_axisZ$2$ = -4						; size = 4
___$ReturnUdt$ = 8					; size = 4
_position$ = 12						; size = 4
_target$ = 16						; size = 4
_up$ = 20						; size = 4
_axisZ$6$ = 24						; size = 4
_axisZ$3$ = 24						; size = 4
_bLH$ = 24						; size = 1
?MatrixFaceTarget@gen@@YA?AVCMatrix4x4@1@ABVCVector3@1@00_N@Z PROC ; gen::MatrixFaceTarget, COMDAT

; 2822 : {

	push	ebp
	mov	ebp, esp
; File c:\users\simon\documents\github\post-processing\import\math\cvector3.h

; 389  : 	return CVector3(v1.x - v2.x, v1.y - v2.y, v1.z - v2.z);

	mov	eax, DWORD PTR _target$[ebp]
; File c:\users\simon\documents\github\post-processing\import\math\cmatrix4x4.cpp

; 2822 : {

	sub	esp, 68					; 00000044H

; 2825 : 	if (bLH)

	cmp	BYTE PTR _bLH$[ebp], 0
	push	esi
; File c:\users\simon\documents\github\post-processing\import\math\cvector3.h

; 389  : 	return CVector3(v1.x - v2.x, v1.y - v2.y, v1.z - v2.z);

	mov	esi, DWORD PTR _position$[ebp]
; File c:\users\simon\documents\github\post-processing\import\math\cmatrix4x4.cpp

; 2825 : 	if (bLH)

	je	$LN6@MatrixFace
; File c:\users\simon\documents\github\post-processing\import\math\cvector3.h

; 389  : 	return CVector3(v1.x - v2.x, v1.y - v2.y, v1.z - v2.z);

	movss	xmm0, DWORD PTR [eax]
	subss	xmm0, DWORD PTR [esi]

; 51   : 	{}

	movss	DWORD PTR $T8[ebp], xmm0

; 389  : 	return CVector3(v1.x - v2.x, v1.y - v2.y, v1.z - v2.z);

	movss	xmm0, DWORD PTR [eax+4]
	subss	xmm0, DWORD PTR [esi+4]

; 51   : 	{}

	movss	DWORD PTR $T8[ebp+4], xmm0

; 389  : 	return CVector3(v1.x - v2.x, v1.y - v2.y, v1.z - v2.z);

	movss	xmm0, DWORD PTR [eax+8]
; File c:\users\simon\documents\github\post-processing\import\math\cmatrix4x4.cpp

; 2827 : 		axisZ = Normalise( target - position );

	lea	eax, DWORD PTR $T8[ebp]
; File c:\users\simon\documents\github\post-processing\import\math\cvector3.h

; 389  : 	return CVector3(v1.x - v2.x, v1.y - v2.y, v1.z - v2.z);

	subss	xmm0, DWORD PTR [esi+8]
; File c:\users\simon\documents\github\post-processing\import\math\cmatrix4x4.cpp

; 2827 : 		axisZ = Normalise( target - position );

	push	eax
	lea	eax, DWORD PTR $T4[ebp]
	push	eax
; File c:\users\simon\documents\github\post-processing\import\math\cvector3.h

; 51   : 	{}

	movss	DWORD PTR $T8[ebp+8], xmm0
; File c:\users\simon\documents\github\post-processing\import\math\cmatrix4x4.cpp

; 2827 : 		axisZ = Normalise( target - position );

	call	?Normalise@gen@@YA?AVCVector3@1@ABV21@@Z ; gen::Normalise
; File c:\users\simon\documents\github\post-processing\import\math\cvector3.h

; 100  : 		if ( this != &v )

	lea	ecx, DWORD PTR _axisZ$[ebp]
; File c:\users\simon\documents\github\post-processing\import\math\cmatrix4x4.cpp

; 2827 : 		axisZ = Normalise( target - position );

	add	esp, 8
; File c:\users\simon\documents\github\post-processing\import\math\cvector3.h

; 100  : 		if ( this != &v )

	cmp	ecx, eax
	je	SHORT $LN89@MatrixFace

; 102  : 			x = v.x;

	movss	xmm4, DWORD PTR [eax]

; 103  : 			y = v.y;

	movss	xmm5, DWORD PTR [eax+4]

; 104  : 			z = v.z;

	movss	xmm6, DWORD PTR [eax+8]
	movss	DWORD PTR _axisZ$[ebp], xmm4
	movss	DWORD PTR _axisZ$[ebp+4], xmm5
	movss	DWORD PTR _axisZ$[ebp+8], xmm6
	jmp	SHORT $LN93@MatrixFace
$LN89@MatrixFace:
	movss	xmm6, DWORD PTR _axisZ$[ebp+8]
	movss	xmm5, DWORD PTR _axisZ$[ebp+4]
	movss	xmm4, DWORD PTR _axisZ$[ebp]
$LN93@MatrixFace:

; 105  : 		}
; 106  : 		return *this;
; 107  : 	}
; 108  : 
; 109  : 
; 110  : 	/*-----------------------------------------------------------------------------------------
; 111  : 		Setters
; 112  : 	-----------------------------------------------------------------------------------------*/
; 113  : 
; 114  : 	// Set all three vector components
; 115  :     void Set
; 116  : 	(
; 117  : 		const TFloat32 xIn,
; 118  : 		const TFloat32 yIn,
; 119  : 		const TFloat32 zIn
; 120  : 	)
; 121  : 	{
; 122  : 		x = xIn;
; 123  : 		y = yIn;
; 124  : 		z = zIn;
; 125  : 	}
; 126  : 
; 127  : 	// Set the vector through a pointer to three floats
; 128  :     void Set( const TFloat32* pfElts )
; 129  : 	{
; 130  : 		x = pfElts[0];
; 131  : 		y = pfElts[1];
; 132  : 		z = pfElts[2];
; 133  : 	}
; 134  : 
; 135  : 	// Set as vector between two points (p1 to p2)
; 136  :     void Set
; 137  : 	(
; 138  : 		const CVector3& p1,
; 139  : 		const CVector3& p2
; 140  : 	)
; 141  : 	{
; 142  : 		x = p2.x - p1.x;
; 143  : 		y = p2.y - p1.y;
; 144  : 		z = p2.z - p1.z;
; 145  : 	}
; 146  : 
; 147  : 	// Set the vector to (0,0,0)
; 148  :     void SetZero()
; 149  : 	{
; 150  : 		x = y = z = 0.0f;
; 151  : 	}
; 152  : 
; 153  : 
; 154  : 	/*-----------------------------------------------------------------------------------------
; 155  : 		Array access
; 156  : 	-----------------------------------------------------------------------------------------*/
; 157  : 
; 158  : 	// Access the x, y & z components in array style (i.e. v[0], v[1], v[2] same as v.x, v.y, v.z)
; 159  : 	// No validation on index
; 160  :     TFloat32& operator[]( const TUInt32 index )
; 161  : 	{
; 162  : 		return (&x)[index];
; 163  : 	}
; 164  : 
; 165  : 	// Access the x, y & z elements in array style - const result
; 166  : 	// No validation on index
; 167  : 	const TFloat32& operator[]( const TUInt32 index ) const
; 168  : 	{
; 169  : 		return (&x)[index];
; 170  : 	}
; 171  : 
; 172  : 
; 173  : 	/*-----------------------------------------------------------------------------------------
; 174  : 		Comparisons
; 175  : 	-----------------------------------------------------------------------------------------*/
; 176  : 	// Equality operators defined as non-member operations after the class definition
; 177  : 
; 178  : 	// Test if the vector is zero length (i.e. = (0,0,0))
; 179  : 	// Uses BaseMath.h float approximation function 'IsZero' with default epsilon (margin of error)
; 180  : 	bool IsZero() const
; 181  : 	{
; 182  : 		return gen::IsZero( x*x + y*y + z*z );

	movaps	xmm1, xmm5

; 104  : 			z = v.z;

	movss	DWORD PTR _axisZ$1$[ebp], xmm4

; 105  : 		}
; 106  : 		return *this;
; 107  : 	}
; 108  : 
; 109  : 
; 110  : 	/*-----------------------------------------------------------------------------------------
; 111  : 		Setters
; 112  : 	-----------------------------------------------------------------------------------------*/
; 113  : 
; 114  : 	// Set all three vector components
; 115  :     void Set
; 116  : 	(
; 117  : 		const TFloat32 xIn,
; 118  : 		const TFloat32 yIn,
; 119  : 		const TFloat32 zIn
; 120  : 	)
; 121  : 	{
; 122  : 		x = xIn;
; 123  : 		y = yIn;
; 124  : 		z = zIn;
; 125  : 	}
; 126  : 
; 127  : 	// Set the vector through a pointer to three floats
; 128  :     void Set( const TFloat32* pfElts )
; 129  : 	{
; 130  : 		x = pfElts[0];
; 131  : 		y = pfElts[1];
; 132  : 		z = pfElts[2];
; 133  : 	}
; 134  : 
; 135  : 	// Set as vector between two points (p1 to p2)
; 136  :     void Set
; 137  : 	(
; 138  : 		const CVector3& p1,
; 139  : 		const CVector3& p2
; 140  : 	)
; 141  : 	{
; 142  : 		x = p2.x - p1.x;
; 143  : 		y = p2.y - p1.y;
; 144  : 		z = p2.z - p1.z;
; 145  : 	}
; 146  : 
; 147  : 	// Set the vector to (0,0,0)
; 148  :     void SetZero()
; 149  : 	{
; 150  : 		x = y = z = 0.0f;
; 151  : 	}
; 152  : 
; 153  : 
; 154  : 	/*-----------------------------------------------------------------------------------------
; 155  : 		Array access
; 156  : 	-----------------------------------------------------------------------------------------*/
; 157  : 
; 158  : 	// Access the x, y & z components in array style (i.e. v[0], v[1], v[2] same as v.x, v.y, v.z)
; 159  : 	// No validation on index
; 160  :     TFloat32& operator[]( const TUInt32 index )
; 161  : 	{
; 162  : 		return (&x)[index];
; 163  : 	}
; 164  : 
; 165  : 	// Access the x, y & z elements in array style - const result
; 166  : 	// No validation on index
; 167  : 	const TFloat32& operator[]( const TUInt32 index ) const
; 168  : 	{
; 169  : 		return (&x)[index];
; 170  : 	}
; 171  : 
; 172  : 
; 173  : 	/*-----------------------------------------------------------------------------------------
; 174  : 		Comparisons
; 175  : 	-----------------------------------------------------------------------------------------*/
; 176  : 	// Equality operators defined as non-member operations after the class definition
; 177  : 
; 178  : 	// Test if the vector is zero length (i.e. = (0,0,0))
; 179  : 	// Uses BaseMath.h float approximation function 'IsZero' with default epsilon (margin of error)
; 180  : 	bool IsZero() const
; 181  : 	{
; 182  : 		return gen::IsZero( x*x + y*y + z*z );

	movaps	xmm0, xmm4
	mulss	xmm1, xmm5
	mulss	xmm0, xmm4

; 104  : 			z = v.z;

	movss	DWORD PTR _axisZ$3$[ebp], xmm5
	movss	DWORD PTR _axisZ$5$[ebp], xmm6

; 105  : 		}
; 106  : 		return *this;
; 107  : 	}
; 108  : 
; 109  : 
; 110  : 	/*-----------------------------------------------------------------------------------------
; 111  : 		Setters
; 112  : 	-----------------------------------------------------------------------------------------*/
; 113  : 
; 114  : 	// Set all three vector components
; 115  :     void Set
; 116  : 	(
; 117  : 		const TFloat32 xIn,
; 118  : 		const TFloat32 yIn,
; 119  : 		const TFloat32 zIn
; 120  : 	)
; 121  : 	{
; 122  : 		x = xIn;
; 123  : 		y = yIn;
; 124  : 		z = zIn;
; 125  : 	}
; 126  : 
; 127  : 	// Set the vector through a pointer to three floats
; 128  :     void Set( const TFloat32* pfElts )
; 129  : 	{
; 130  : 		x = pfElts[0];
; 131  : 		y = pfElts[1];
; 132  : 		z = pfElts[2];
; 133  : 	}
; 134  : 
; 135  : 	// Set as vector between two points (p1 to p2)
; 136  :     void Set
; 137  : 	(
; 138  : 		const CVector3& p1,
; 139  : 		const CVector3& p2
; 140  : 	)
; 141  : 	{
; 142  : 		x = p2.x - p1.x;
; 143  : 		y = p2.y - p1.y;
; 144  : 		z = p2.z - p1.z;
; 145  : 	}
; 146  : 
; 147  : 	// Set the vector to (0,0,0)
; 148  :     void SetZero()
; 149  : 	{
; 150  : 		x = y = z = 0.0f;
; 151  : 	}
; 152  : 
; 153  : 
; 154  : 	/*-----------------------------------------------------------------------------------------
; 155  : 		Array access
; 156  : 	-----------------------------------------------------------------------------------------*/
; 157  : 
; 158  : 	// Access the x, y & z components in array style (i.e. v[0], v[1], v[2] same as v.x, v.y, v.z)
; 159  : 	// No validation on index
; 160  :     TFloat32& operator[]( const TUInt32 index )
; 161  : 	{
; 162  : 		return (&x)[index];
; 163  : 	}
; 164  : 
; 165  : 	// Access the x, y & z elements in array style - const result
; 166  : 	// No validation on index
; 167  : 	const TFloat32& operator[]( const TUInt32 index ) const
; 168  : 	{
; 169  : 		return (&x)[index];
; 170  : 	}
; 171  : 
; 172  : 
; 173  : 	/*-----------------------------------------------------------------------------------------
; 174  : 		Comparisons
; 175  : 	-----------------------------------------------------------------------------------------*/
; 176  : 	// Equality operators defined as non-member operations after the class definition
; 177  : 
; 178  : 	// Test if the vector is zero length (i.e. = (0,0,0))
; 179  : 	// Uses BaseMath.h float approximation function 'IsZero' with default epsilon (margin of error)
; 180  : 	bool IsZero() const
; 181  : 	{
; 182  : 		return gen::IsZero( x*x + y*y + z*z );

	addss	xmm1, xmm0
	movaps	xmm0, xmm6
	mulss	xmm0, xmm6
	addss	xmm1, xmm0
	xorps	xmm0, xmm0
; File c:\program files (x86)\microsoft visual studio 12.0\vc\include\math.h

; 687  :     return (float)fabs(_X);

	cvtss2sd xmm0, xmm1
	andpd	xmm0, QWORD PTR __xmm@7fffffffffffffff7fffffffffffffff
	cvtpd2ps xmm1, xmm0
; File c:\users\simon\documents\github\post-processing\import\math\basemath.h

; 292  : 	return Abs( x ) < fEpsilon;

	movss	xmm0, DWORD PTR __real@350637bd
	comiss	xmm0, xmm1
; File c:\users\simon\documents\github\post-processing\import\math\cmatrix4x4.cpp

; 2828 : 		if (axisZ.IsZero()) return CMatrix4x4( position );

	jbe	SHORT $LN5@MatrixFace
$LN97@MatrixFace:
	mov	ecx, DWORD PTR ___$ReturnUdt$[ebp]
	push	esi
	call	??0CMatrix4x4@gen@@QAE@ABVCVector3@1@@Z	; gen::CMatrix4x4::CMatrix4x4

; 2842 : 	return CMatrix4x4( axisX, axisY, axisZ, position );

	mov	eax, DWORD PTR ___$ReturnUdt$[ebp]
	pop	esi

; 2843 : }

	mov	esp, ebp
	pop	ebp
	ret	0
$LN5@MatrixFace:
; File c:\users\simon\documents\github\post-processing\import\math\cvector3.h

; 464  : 	return CVector3(v1.y*v2.z - v1.z*v2.y, v1.z*v2.x - v1.x*v2.z, v1.x*v2.y - v1.y*v2.x);

	mov	eax, DWORD PTR _up$[ebp]
	movss	xmm3, DWORD PTR [eax+4]
	movss	xmm2, DWORD PTR [eax+8]
	movaps	xmm1, xmm3
	movaps	xmm0, xmm2
	mulss	xmm1, xmm6
	mulss	xmm0, xmm5
	mulss	xmm2, xmm4
	subss	xmm1, xmm0
	mulss	xmm3, xmm4

; 51   : 	{}

	movss	DWORD PTR $T7[ebp], xmm1

; 464  : 	return CVector3(v1.y*v2.z - v1.z*v2.y, v1.z*v2.x - v1.x*v2.z, v1.x*v2.y - v1.y*v2.x);

	movss	xmm1, DWORD PTR [eax]
; File c:\users\simon\documents\github\post-processing\import\math\cmatrix4x4.cpp

; 2829 : 		axisX = Normalise( Cross( up, axisZ ) );

	lea	eax, DWORD PTR $T7[ebp]
; File c:\users\simon\documents\github\post-processing\import\math\cvector3.h

; 464  : 	return CVector3(v1.y*v2.z - v1.z*v2.y, v1.z*v2.x - v1.x*v2.z, v1.x*v2.y - v1.y*v2.x);

	movaps	xmm0, xmm1
	mulss	xmm1, xmm5
; File c:\users\simon\documents\github\post-processing\import\math\cmatrix4x4.cpp

; 2829 : 		axisX = Normalise( Cross( up, axisZ ) );

	push	eax
; File c:\users\simon\documents\github\post-processing\import\math\cvector3.h

; 464  : 	return CVector3(v1.y*v2.z - v1.z*v2.y, v1.z*v2.x - v1.x*v2.z, v1.x*v2.y - v1.y*v2.x);

	mulss	xmm0, xmm6
; File c:\users\simon\documents\github\post-processing\import\math\cmatrix4x4.cpp

; 2829 : 		axisX = Normalise( Cross( up, axisZ ) );

	lea	eax, DWORD PTR $T3[ebp]
	push	eax
; File c:\users\simon\documents\github\post-processing\import\math\cvector3.h

; 464  : 	return CVector3(v1.y*v2.z - v1.z*v2.y, v1.z*v2.x - v1.x*v2.z, v1.x*v2.y - v1.y*v2.x);

	subss	xmm1, xmm3
	subss	xmm2, xmm0

; 51   : 	{}

	movss	DWORD PTR $T7[ebp+8], xmm1
	movss	DWORD PTR $T7[ebp+4], xmm2
; File c:\users\simon\documents\github\post-processing\import\math\cmatrix4x4.cpp

; 2829 : 		axisX = Normalise( Cross( up, axisZ ) );

	call	?Normalise@gen@@YA?AVCVector3@1@ABV21@@Z ; gen::Normalise
; File c:\users\simon\documents\github\post-processing\import\math\cvector3.h

; 100  : 		if ( this != &v )

	lea	ecx, DWORD PTR _axisX$[ebp]
; File c:\users\simon\documents\github\post-processing\import\math\cmatrix4x4.cpp

; 2829 : 		axisX = Normalise( Cross( up, axisZ ) );

	add	esp, 8
; File c:\users\simon\documents\github\post-processing\import\math\cvector3.h

; 100  : 		if ( this != &v )

	cmp	ecx, eax
	je	SHORT $LN90@MatrixFace

; 102  : 			x = v.x;

	movss	xmm5, DWORD PTR [eax]

; 103  : 			y = v.y;

	movss	xmm2, DWORD PTR [eax+4]

; 104  : 			z = v.z;

	movss	xmm6, DWORD PTR [eax+8]
	movss	DWORD PTR _axisX$[ebp], xmm5
	movss	DWORD PTR _axisX$[ebp+4], xmm2
	movss	DWORD PTR _axisX$[ebp+8], xmm6
	jmp	SHORT $LN34@MatrixFace
$LN90@MatrixFace:
	movss	xmm6, DWORD PTR _axisX$[ebp+8]
	movss	xmm2, DWORD PTR _axisX$[ebp+4]
	movss	xmm5, DWORD PTR _axisX$[ebp]
$LN34@MatrixFace:

; 105  : 		}
; 106  : 		return *this;
; 107  : 	}
; 108  : 
; 109  : 
; 110  : 	/*-----------------------------------------------------------------------------------------
; 111  : 		Setters
; 112  : 	-----------------------------------------------------------------------------------------*/
; 113  : 
; 114  : 	// Set all three vector components
; 115  :     void Set
; 116  : 	(
; 117  : 		const TFloat32 xIn,
; 118  : 		const TFloat32 yIn,
; 119  : 		const TFloat32 zIn
; 120  : 	)
; 121  : 	{
; 122  : 		x = xIn;
; 123  : 		y = yIn;
; 124  : 		z = zIn;
; 125  : 	}
; 126  : 
; 127  : 	// Set the vector through a pointer to three floats
; 128  :     void Set( const TFloat32* pfElts )
; 129  : 	{
; 130  : 		x = pfElts[0];
; 131  : 		y = pfElts[1];
; 132  : 		z = pfElts[2];
; 133  : 	}
; 134  : 
; 135  : 	// Set as vector between two points (p1 to p2)
; 136  :     void Set
; 137  : 	(
; 138  : 		const CVector3& p1,
; 139  : 		const CVector3& p2
; 140  : 	)
; 141  : 	{
; 142  : 		x = p2.x - p1.x;
; 143  : 		y = p2.y - p1.y;
; 144  : 		z = p2.z - p1.z;
; 145  : 	}
; 146  : 
; 147  : 	// Set the vector to (0,0,0)
; 148  :     void SetZero()
; 149  : 	{
; 150  : 		x = y = z = 0.0f;
; 151  : 	}
; 152  : 
; 153  : 
; 154  : 	/*-----------------------------------------------------------------------------------------
; 155  : 		Array access
; 156  : 	-----------------------------------------------------------------------------------------*/
; 157  : 
; 158  : 	// Access the x, y & z components in array style (i.e. v[0], v[1], v[2] same as v.x, v.y, v.z)
; 159  : 	// No validation on index
; 160  :     TFloat32& operator[]( const TUInt32 index )
; 161  : 	{
; 162  : 		return (&x)[index];
; 163  : 	}
; 164  : 
; 165  : 	// Access the x, y & z elements in array style - const result
; 166  : 	// No validation on index
; 167  : 	const TFloat32& operator[]( const TUInt32 index ) const
; 168  : 	{
; 169  : 		return (&x)[index];
; 170  : 	}
; 171  : 
; 172  : 
; 173  : 	/*-----------------------------------------------------------------------------------------
; 174  : 		Comparisons
; 175  : 	-----------------------------------------------------------------------------------------*/
; 176  : 	// Equality operators defined as non-member operations after the class definition
; 177  : 
; 178  : 	// Test if the vector is zero length (i.e. = (0,0,0))
; 179  : 	// Uses BaseMath.h float approximation function 'IsZero' with default epsilon (margin of error)
; 180  : 	bool IsZero() const
; 181  : 	{
; 182  : 		return gen::IsZero( x*x + y*y + z*z );

	movaps	xmm1, xmm2
	movaps	xmm0, xmm5
	mulss	xmm0, xmm5
	mulss	xmm1, xmm2
	addss	xmm1, xmm0
	movaps	xmm0, xmm6
	mulss	xmm0, xmm6
	addss	xmm1, xmm0
	xorps	xmm0, xmm0
; File c:\program files (x86)\microsoft visual studio 12.0\vc\include\math.h

; 687  :     return (float)fabs(_X);

	cvtss2sd xmm0, xmm1
	andpd	xmm0, QWORD PTR __xmm@7fffffffffffffff7fffffffffffffff
	cvtpd2ps xmm1, xmm0
; File c:\users\simon\documents\github\post-processing\import\math\basemath.h

; 292  : 	return Abs( x ) < fEpsilon;

	movss	xmm0, DWORD PTR __real@350637bd
	comiss	xmm0, xmm1
; File c:\users\simon\documents\github\post-processing\import\math\cmatrix4x4.cpp

; 2830 : 		if (axisX.IsZero()) return CMatrix4x4( position );

	ja	$LN97@MatrixFace
; File c:\users\simon\documents\github\post-processing\import\math\cvector3.h

; 464  : 	return CVector3(v1.y*v2.z - v1.z*v2.y, v1.z*v2.x - v1.x*v2.z, v1.x*v2.y - v1.y*v2.x);

	movaps	xmm0, xmm2
	movaps	xmm1, xmm6
	mulss	xmm0, DWORD PTR _axisZ$5$[ebp]
	mulss	xmm1, DWORD PTR _axisZ$3$[ebp]
	mulss	xmm6, DWORD PTR _axisZ$1$[ebp]
	mulss	xmm2, DWORD PTR _axisZ$1$[ebp]
	subss	xmm1, xmm0
	movaps	xmm0, xmm5
	mulss	xmm5, DWORD PTR _axisZ$3$[ebp]
	mulss	xmm0, DWORD PTR _axisZ$5$[ebp]
	subss	xmm2, xmm5
	subss	xmm0, xmm6

; 104  : 			z = v.z;

	movss	DWORD PTR _axisY$[ebp+8], xmm2
	movss	DWORD PTR _axisY$[ebp+4], xmm0
; File c:\users\simon\documents\github\post-processing\import\math\cmatrix4x4.cpp

; 2833 : 	else

	jmp	$LN95@MatrixFace
$LN6@MatrixFace:
; File c:\users\simon\documents\github\post-processing\import\math\cvector3.h

; 389  : 	return CVector3(v1.x - v2.x, v1.y - v2.y, v1.z - v2.z);

	movss	xmm0, DWORD PTR [esi]
	subss	xmm0, DWORD PTR [eax]

; 51   : 	{}

	movss	DWORD PTR $T6[ebp], xmm0

; 389  : 	return CVector3(v1.x - v2.x, v1.y - v2.y, v1.z - v2.z);

	movss	xmm0, DWORD PTR [esi+4]
	subss	xmm0, DWORD PTR [eax+4]

; 51   : 	{}

	movss	DWORD PTR $T6[ebp+4], xmm0

; 389  : 	return CVector3(v1.x - v2.x, v1.y - v2.y, v1.z - v2.z);

	movss	xmm0, DWORD PTR [esi+8]
	subss	xmm0, DWORD PTR [eax+8]
; File c:\users\simon\documents\github\post-processing\import\math\cmatrix4x4.cpp

; 2835 : 		axisZ = Normalise( position - target );

	lea	eax, DWORD PTR $T6[ebp]
	push	eax
	lea	eax, DWORD PTR $T2[ebp]
	push	eax
; File c:\users\simon\documents\github\post-processing\import\math\cvector3.h

; 51   : 	{}

	movss	DWORD PTR $T6[ebp+8], xmm0
; File c:\users\simon\documents\github\post-processing\import\math\cmatrix4x4.cpp

; 2835 : 		axisZ = Normalise( position - target );

	call	?Normalise@gen@@YA?AVCVector3@1@ABV21@@Z ; gen::Normalise
; File c:\users\simon\documents\github\post-processing\import\math\cvector3.h

; 100  : 		if ( this != &v )

	lea	ecx, DWORD PTR _axisZ$[ebp]
; File c:\users\simon\documents\github\post-processing\import\math\cmatrix4x4.cpp

; 2835 : 		axisZ = Normalise( position - target );

	add	esp, 8
; File c:\users\simon\documents\github\post-processing\import\math\cvector3.h

; 100  : 		if ( this != &v )

	cmp	ecx, eax
	je	SHORT $LN91@MatrixFace

; 102  : 			x = v.x;

	movss	xmm4, DWORD PTR [eax]

; 103  : 			y = v.y;

	movss	xmm5, DWORD PTR [eax+4]

; 104  : 			z = v.z;

	movss	xmm6, DWORD PTR [eax+8]
	movss	DWORD PTR _axisZ$[ebp], xmm4
	movss	DWORD PTR _axisZ$[ebp+4], xmm5
	movss	DWORD PTR _axisZ$[ebp+8], xmm6
	jmp	SHORT $LN96@MatrixFace
$LN91@MatrixFace:
	movss	xmm6, DWORD PTR _axisZ$[ebp+8]
	movss	xmm5, DWORD PTR _axisZ$[ebp+4]
	movss	xmm4, DWORD PTR _axisZ$[ebp]
$LN96@MatrixFace:

; 105  : 		}
; 106  : 		return *this;
; 107  : 	}
; 108  : 
; 109  : 
; 110  : 	/*-----------------------------------------------------------------------------------------
; 111  : 		Setters
; 112  : 	-----------------------------------------------------------------------------------------*/
; 113  : 
; 114  : 	// Set all three vector components
; 115  :     void Set
; 116  : 	(
; 117  : 		const TFloat32 xIn,
; 118  : 		const TFloat32 yIn,
; 119  : 		const TFloat32 zIn
; 120  : 	)
; 121  : 	{
; 122  : 		x = xIn;
; 123  : 		y = yIn;
; 124  : 		z = zIn;
; 125  : 	}
; 126  : 
; 127  : 	// Set the vector through a pointer to three floats
; 128  :     void Set( const TFloat32* pfElts )
; 129  : 	{
; 130  : 		x = pfElts[0];
; 131  : 		y = pfElts[1];
; 132  : 		z = pfElts[2];
; 133  : 	}
; 134  : 
; 135  : 	// Set as vector between two points (p1 to p2)
; 136  :     void Set
; 137  : 	(
; 138  : 		const CVector3& p1,
; 139  : 		const CVector3& p2
; 140  : 	)
; 141  : 	{
; 142  : 		x = p2.x - p1.x;
; 143  : 		y = p2.y - p1.y;
; 144  : 		z = p2.z - p1.z;
; 145  : 	}
; 146  : 
; 147  : 	// Set the vector to (0,0,0)
; 148  :     void SetZero()
; 149  : 	{
; 150  : 		x = y = z = 0.0f;
; 151  : 	}
; 152  : 
; 153  : 
; 154  : 	/*-----------------------------------------------------------------------------------------
; 155  : 		Array access
; 156  : 	-----------------------------------------------------------------------------------------*/
; 157  : 
; 158  : 	// Access the x, y & z components in array style (i.e. v[0], v[1], v[2] same as v.x, v.y, v.z)
; 159  : 	// No validation on index
; 160  :     TFloat32& operator[]( const TUInt32 index )
; 161  : 	{
; 162  : 		return (&x)[index];
; 163  : 	}
; 164  : 
; 165  : 	// Access the x, y & z elements in array style - const result
; 166  : 	// No validation on index
; 167  : 	const TFloat32& operator[]( const TUInt32 index ) const
; 168  : 	{
; 169  : 		return (&x)[index];
; 170  : 	}
; 171  : 
; 172  : 
; 173  : 	/*-----------------------------------------------------------------------------------------
; 174  : 		Comparisons
; 175  : 	-----------------------------------------------------------------------------------------*/
; 176  : 	// Equality operators defined as non-member operations after the class definition
; 177  : 
; 178  : 	// Test if the vector is zero length (i.e. = (0,0,0))
; 179  : 	// Uses BaseMath.h float approximation function 'IsZero' with default epsilon (margin of error)
; 180  : 	bool IsZero() const
; 181  : 	{
; 182  : 		return gen::IsZero( x*x + y*y + z*z );

	movaps	xmm1, xmm5

; 104  : 			z = v.z;

	movss	DWORD PTR _axisZ$2$[ebp], xmm4

; 105  : 		}
; 106  : 		return *this;
; 107  : 	}
; 108  : 
; 109  : 
; 110  : 	/*-----------------------------------------------------------------------------------------
; 111  : 		Setters
; 112  : 	-----------------------------------------------------------------------------------------*/
; 113  : 
; 114  : 	// Set all three vector components
; 115  :     void Set
; 116  : 	(
; 117  : 		const TFloat32 xIn,
; 118  : 		const TFloat32 yIn,
; 119  : 		const TFloat32 zIn
; 120  : 	)
; 121  : 	{
; 122  : 		x = xIn;
; 123  : 		y = yIn;
; 124  : 		z = zIn;
; 125  : 	}
; 126  : 
; 127  : 	// Set the vector through a pointer to three floats
; 128  :     void Set( const TFloat32* pfElts )
; 129  : 	{
; 130  : 		x = pfElts[0];
; 131  : 		y = pfElts[1];
; 132  : 		z = pfElts[2];
; 133  : 	}
; 134  : 
; 135  : 	// Set as vector between two points (p1 to p2)
; 136  :     void Set
; 137  : 	(
; 138  : 		const CVector3& p1,
; 139  : 		const CVector3& p2
; 140  : 	)
; 141  : 	{
; 142  : 		x = p2.x - p1.x;
; 143  : 		y = p2.y - p1.y;
; 144  : 		z = p2.z - p1.z;
; 145  : 	}
; 146  : 
; 147  : 	// Set the vector to (0,0,0)
; 148  :     void SetZero()
; 149  : 	{
; 150  : 		x = y = z = 0.0f;
; 151  : 	}
; 152  : 
; 153  : 
; 154  : 	/*-----------------------------------------------------------------------------------------
; 155  : 		Array access
; 156  : 	-----------------------------------------------------------------------------------------*/
; 157  : 
; 158  : 	// Access the x, y & z components in array style (i.e. v[0], v[1], v[2] same as v.x, v.y, v.z)
; 159  : 	// No validation on index
; 160  :     TFloat32& operator[]( const TUInt32 index )
; 161  : 	{
; 162  : 		return (&x)[index];
; 163  : 	}
; 164  : 
; 165  : 	// Access the x, y & z elements in array style - const result
; 166  : 	// No validation on index
; 167  : 	const TFloat32& operator[]( const TUInt32 index ) const
; 168  : 	{
; 169  : 		return (&x)[index];
; 170  : 	}
; 171  : 
; 172  : 
; 173  : 	/*-----------------------------------------------------------------------------------------
; 174  : 		Comparisons
; 175  : 	-----------------------------------------------------------------------------------------*/
; 176  : 	// Equality operators defined as non-member operations after the class definition
; 177  : 
; 178  : 	// Test if the vector is zero length (i.e. = (0,0,0))
; 179  : 	// Uses BaseMath.h float approximation function 'IsZero' with default epsilon (margin of error)
; 180  : 	bool IsZero() const
; 181  : 	{
; 182  : 		return gen::IsZero( x*x + y*y + z*z );

	movaps	xmm0, xmm4
	mulss	xmm1, xmm5
	mulss	xmm0, xmm4

; 104  : 			z = v.z;

	movss	DWORD PTR _axisZ$4$[ebp], xmm5
	movss	DWORD PTR _axisZ$6$[ebp], xmm6

; 105  : 		}
; 106  : 		return *this;
; 107  : 	}
; 108  : 
; 109  : 
; 110  : 	/*-----------------------------------------------------------------------------------------
; 111  : 		Setters
; 112  : 	-----------------------------------------------------------------------------------------*/
; 113  : 
; 114  : 	// Set all three vector components
; 115  :     void Set
; 116  : 	(
; 117  : 		const TFloat32 xIn,
; 118  : 		const TFloat32 yIn,
; 119  : 		const TFloat32 zIn
; 120  : 	)
; 121  : 	{
; 122  : 		x = xIn;
; 123  : 		y = yIn;
; 124  : 		z = zIn;
; 125  : 	}
; 126  : 
; 127  : 	// Set the vector through a pointer to three floats
; 128  :     void Set( const TFloat32* pfElts )
; 129  : 	{
; 130  : 		x = pfElts[0];
; 131  : 		y = pfElts[1];
; 132  : 		z = pfElts[2];
; 133  : 	}
; 134  : 
; 135  : 	// Set as vector between two points (p1 to p2)
; 136  :     void Set
; 137  : 	(
; 138  : 		const CVector3& p1,
; 139  : 		const CVector3& p2
; 140  : 	)
; 141  : 	{
; 142  : 		x = p2.x - p1.x;
; 143  : 		y = p2.y - p1.y;
; 144  : 		z = p2.z - p1.z;
; 145  : 	}
; 146  : 
; 147  : 	// Set the vector to (0,0,0)
; 148  :     void SetZero()
; 149  : 	{
; 150  : 		x = y = z = 0.0f;
; 151  : 	}
; 152  : 
; 153  : 
; 154  : 	/*-----------------------------------------------------------------------------------------
; 155  : 		Array access
; 156  : 	-----------------------------------------------------------------------------------------*/
; 157  : 
; 158  : 	// Access the x, y & z components in array style (i.e. v[0], v[1], v[2] same as v.x, v.y, v.z)
; 159  : 	// No validation on index
; 160  :     TFloat32& operator[]( const TUInt32 index )
; 161  : 	{
; 162  : 		return (&x)[index];
; 163  : 	}
; 164  : 
; 165  : 	// Access the x, y & z elements in array style - const result
; 166  : 	// No validation on index
; 167  : 	const TFloat32& operator[]( const TUInt32 index ) const
; 168  : 	{
; 169  : 		return (&x)[index];
; 170  : 	}
; 171  : 
; 172  : 
; 173  : 	/*-----------------------------------------------------------------------------------------
; 174  : 		Comparisons
; 175  : 	-----------------------------------------------------------------------------------------*/
; 176  : 	// Equality operators defined as non-member operations after the class definition
; 177  : 
; 178  : 	// Test if the vector is zero length (i.e. = (0,0,0))
; 179  : 	// Uses BaseMath.h float approximation function 'IsZero' with default epsilon (margin of error)
; 180  : 	bool IsZero() const
; 181  : 	{
; 182  : 		return gen::IsZero( x*x + y*y + z*z );

	addss	xmm1, xmm0
	movaps	xmm0, xmm6
	mulss	xmm0, xmm6
	addss	xmm1, xmm0
	xorps	xmm0, xmm0
; File c:\program files (x86)\microsoft visual studio 12.0\vc\include\math.h

; 687  :     return (float)fabs(_X);

	cvtss2sd xmm0, xmm1
	andpd	xmm0, QWORD PTR __xmm@7fffffffffffffff7fffffffffffffff
	cvtpd2ps xmm1, xmm0
; File c:\users\simon\documents\github\post-processing\import\math\basemath.h

; 292  : 	return Abs( x ) < fEpsilon;

	movss	xmm0, DWORD PTR __real@350637bd
	comiss	xmm0, xmm1
; File c:\users\simon\documents\github\post-processing\import\math\cmatrix4x4.cpp

; 2836 : 		if (axisZ.IsZero()) return CMatrix4x4( position );

	ja	$LN97@MatrixFace
; File c:\users\simon\documents\github\post-processing\import\math\cvector3.h

; 464  : 	return CVector3(v1.y*v2.z - v1.z*v2.y, v1.z*v2.x - v1.x*v2.z, v1.x*v2.y - v1.y*v2.x);

	mov	eax, DWORD PTR _up$[ebp]
	movss	xmm2, DWORD PTR [eax+8]
	movss	xmm3, DWORD PTR [eax+4]
	movaps	xmm1, xmm2
	movaps	xmm0, xmm3
	mulss	xmm1, xmm5
	mulss	xmm0, xmm6
	mulss	xmm2, xmm4
	subss	xmm1, xmm0
	mulss	xmm3, xmm4

; 51   : 	{}

	movss	DWORD PTR $T5[ebp], xmm1

; 464  : 	return CVector3(v1.y*v2.z - v1.z*v2.y, v1.z*v2.x - v1.x*v2.z, v1.x*v2.y - v1.y*v2.x);

	movss	xmm1, DWORD PTR [eax]
; File c:\users\simon\documents\github\post-processing\import\math\cmatrix4x4.cpp

; 2837 : 		axisX = Normalise( Cross( axisZ, up ) );

	lea	eax, DWORD PTR $T5[ebp]
; File c:\users\simon\documents\github\post-processing\import\math\cvector3.h

; 464  : 	return CVector3(v1.y*v2.z - v1.z*v2.y, v1.z*v2.x - v1.x*v2.z, v1.x*v2.y - v1.y*v2.x);

	movaps	xmm0, xmm1
	mulss	xmm1, xmm5
; File c:\users\simon\documents\github\post-processing\import\math\cmatrix4x4.cpp

; 2837 : 		axisX = Normalise( Cross( axisZ, up ) );

	push	eax
; File c:\users\simon\documents\github\post-processing\import\math\cvector3.h

; 464  : 	return CVector3(v1.y*v2.z - v1.z*v2.y, v1.z*v2.x - v1.x*v2.z, v1.x*v2.y - v1.y*v2.x);

	mulss	xmm0, xmm6
; File c:\users\simon\documents\github\post-processing\import\math\cmatrix4x4.cpp

; 2837 : 		axisX = Normalise( Cross( axisZ, up ) );

	lea	eax, DWORD PTR $T1[ebp]
	push	eax
; File c:\users\simon\documents\github\post-processing\import\math\cvector3.h

; 464  : 	return CVector3(v1.y*v2.z - v1.z*v2.y, v1.z*v2.x - v1.x*v2.z, v1.x*v2.y - v1.y*v2.x);

	subss	xmm3, xmm1
	subss	xmm0, xmm2

; 51   : 	{}

	movss	DWORD PTR $T5[ebp+8], xmm3
	movss	DWORD PTR $T5[ebp+4], xmm0
; File c:\users\simon\documents\github\post-processing\import\math\cmatrix4x4.cpp

; 2837 : 		axisX = Normalise( Cross( axisZ, up ) );

	call	?Normalise@gen@@YA?AVCVector3@1@ABV21@@Z ; gen::Normalise
; File c:\users\simon\documents\github\post-processing\import\math\cvector3.h

; 100  : 		if ( this != &v )

	lea	ecx, DWORD PTR _axisX$[ebp]
; File c:\users\simon\documents\github\post-processing\import\math\cmatrix4x4.cpp

; 2837 : 		axisX = Normalise( Cross( axisZ, up ) );

	add	esp, 8
; File c:\users\simon\documents\github\post-processing\import\math\cvector3.h

; 100  : 		if ( this != &v )

	cmp	ecx, eax
	je	SHORT $LN92@MatrixFace

; 102  : 			x = v.x;

	movss	xmm3, DWORD PTR [eax]

; 103  : 			y = v.y;

	movss	xmm7, DWORD PTR [eax+4]

; 104  : 			z = v.z;

	movss	xmm2, DWORD PTR [eax+8]
	movss	DWORD PTR _axisX$[ebp], xmm3
	movss	DWORD PTR _axisX$[ebp+4], xmm7
	movss	DWORD PTR _axisX$[ebp+8], xmm2
	jmp	SHORT $LN71@MatrixFace
$LN92@MatrixFace:
	movss	xmm2, DWORD PTR _axisX$[ebp+8]
	movss	xmm7, DWORD PTR _axisX$[ebp+4]
	movss	xmm3, DWORD PTR _axisX$[ebp]
$LN71@MatrixFace:

; 105  : 		}
; 106  : 		return *this;
; 107  : 	}
; 108  : 
; 109  : 
; 110  : 	/*-----------------------------------------------------------------------------------------
; 111  : 		Setters
; 112  : 	-----------------------------------------------------------------------------------------*/
; 113  : 
; 114  : 	// Set all three vector components
; 115  :     void Set
; 116  : 	(
; 117  : 		const TFloat32 xIn,
; 118  : 		const TFloat32 yIn,
; 119  : 		const TFloat32 zIn
; 120  : 	)
; 121  : 	{
; 122  : 		x = xIn;
; 123  : 		y = yIn;
; 124  : 		z = zIn;
; 125  : 	}
; 126  : 
; 127  : 	// Set the vector through a pointer to three floats
; 128  :     void Set( const TFloat32* pfElts )
; 129  : 	{
; 130  : 		x = pfElts[0];
; 131  : 		y = pfElts[1];
; 132  : 		z = pfElts[2];
; 133  : 	}
; 134  : 
; 135  : 	// Set as vector between two points (p1 to p2)
; 136  :     void Set
; 137  : 	(
; 138  : 		const CVector3& p1,
; 139  : 		const CVector3& p2
; 140  : 	)
; 141  : 	{
; 142  : 		x = p2.x - p1.x;
; 143  : 		y = p2.y - p1.y;
; 144  : 		z = p2.z - p1.z;
; 145  : 	}
; 146  : 
; 147  : 	// Set the vector to (0,0,0)
; 148  :     void SetZero()
; 149  : 	{
; 150  : 		x = y = z = 0.0f;
; 151  : 	}
; 152  : 
; 153  : 
; 154  : 	/*-----------------------------------------------------------------------------------------
; 155  : 		Array access
; 156  : 	-----------------------------------------------------------------------------------------*/
; 157  : 
; 158  : 	// Access the x, y & z components in array style (i.e. v[0], v[1], v[2] same as v.x, v.y, v.z)
; 159  : 	// No validation on index
; 160  :     TFloat32& operator[]( const TUInt32 index )
; 161  : 	{
; 162  : 		return (&x)[index];
; 163  : 	}
; 164  : 
; 165  : 	// Access the x, y & z elements in array style - const result
; 166  : 	// No validation on index
; 167  : 	const TFloat32& operator[]( const TUInt32 index ) const
; 168  : 	{
; 169  : 		return (&x)[index];
; 170  : 	}
; 171  : 
; 172  : 
; 173  : 	/*-----------------------------------------------------------------------------------------
; 174  : 		Comparisons
; 175  : 	-----------------------------------------------------------------------------------------*/
; 176  : 	// Equality operators defined as non-member operations after the class definition
; 177  : 
; 178  : 	// Test if the vector is zero length (i.e. = (0,0,0))
; 179  : 	// Uses BaseMath.h float approximation function 'IsZero' with default epsilon (margin of error)
; 180  : 	bool IsZero() const
; 181  : 	{
; 182  : 		return gen::IsZero( x*x + y*y + z*z );

	movaps	xmm1, xmm7
	movaps	xmm0, xmm3
	mulss	xmm0, xmm3
	mulss	xmm1, xmm7
	addss	xmm1, xmm0
	movaps	xmm0, xmm2
	mulss	xmm0, xmm2
	addss	xmm1, xmm0
	xorps	xmm0, xmm0
; File c:\program files (x86)\microsoft visual studio 12.0\vc\include\math.h

; 687  :     return (float)fabs(_X);

	cvtss2sd xmm0, xmm1
	andpd	xmm0, QWORD PTR __xmm@7fffffffffffffff7fffffffffffffff
	cvtpd2ps xmm1, xmm0
; File c:\users\simon\documents\github\post-processing\import\math\basemath.h

; 292  : 	return Abs( x ) < fEpsilon;

	movss	xmm0, DWORD PTR __real@350637bd
	comiss	xmm0, xmm1
; File c:\users\simon\documents\github\post-processing\import\math\cmatrix4x4.cpp

; 2838 : 		if (axisX.IsZero()) return CMatrix4x4( position );

	ja	$LN97@MatrixFace
; File c:\users\simon\documents\github\post-processing\import\math\cvector3.h

; 464  : 	return CVector3(v1.y*v2.z - v1.z*v2.y, v1.z*v2.x - v1.x*v2.z, v1.x*v2.y - v1.y*v2.x);

	movaps	xmm0, xmm2
	movaps	xmm1, xmm7
	mulss	xmm0, DWORD PTR _axisZ$4$[ebp]
	mulss	xmm1, DWORD PTR _axisZ$6$[ebp]
	mulss	xmm2, DWORD PTR _axisZ$2$[ebp]
	mulss	xmm7, DWORD PTR _axisZ$2$[ebp]
	subss	xmm1, xmm0
	movaps	xmm0, xmm3
	mulss	xmm3, DWORD PTR _axisZ$4$[ebp]
	mulss	xmm0, DWORD PTR _axisZ$6$[ebp]
	subss	xmm3, xmm7
	subss	xmm2, xmm0

; 104  : 			z = v.z;

	movss	DWORD PTR _axisY$[ebp+8], xmm3
	movss	DWORD PTR _axisY$[ebp+4], xmm2
$LN95@MatrixFace:
; File c:\users\simon\documents\github\post-processing\import\math\cmatrix4x4.cpp

; 2842 : 	return CMatrix4x4( axisX, axisY, axisZ, position );

	mov	ecx, DWORD PTR ___$ReturnUdt$[ebp]
	lea	eax, DWORD PTR _axisZ$[ebp]
	push	1
	push	esi
	push	eax
	lea	eax, DWORD PTR _axisY$[ebp]
; File c:\users\simon\documents\github\post-processing\import\math\cvector3.h

; 102  : 			x = v.x;

	movss	DWORD PTR _axisY$[ebp], xmm1
; File c:\users\simon\documents\github\post-processing\import\math\cmatrix4x4.cpp

; 2842 : 	return CMatrix4x4( axisX, axisY, axisZ, position );

	push	eax
	lea	eax, DWORD PTR _axisX$[ebp]
	push	eax
	call	??0CMatrix4x4@gen@@QAE@ABVCVector3@1@000_N@Z ; gen::CMatrix4x4::CMatrix4x4
	mov	eax, DWORD PTR ___$ReturnUdt$[ebp]
	pop	esi

; 2843 : }

	mov	esp, ebp
	pop	ebp
	ret	0
?MatrixFaceTarget@gen@@YA?AVCMatrix4x4@1@ABVCVector3@1@00_N@Z ENDP ; gen::MatrixFaceTarget
_TEXT	ENDS
; Function compile flags: /Ogtp
; File c:\users\simon\documents\github\post-processing\import\math\cmatrix4x4.cpp
;	COMDAT ?MatrixScaling@gen@@YA?AVCMatrix4x4@1@M@Z
_TEXT	SEGMENT
___$ReturnUdt$ = 8					; size = 4
_fScale$ = 12						; size = 4
?MatrixScaling@gen@@YA?AVCMatrix4x4@1@M@Z PROC		; gen::MatrixScaling, COMDAT

; 2743 : {

	push	ebp
	mov	ebp, esp

; 2744 : 	CMatrix4x4 m;
; 2745 : 
; 2746 : 	m.e00 = fScale;

	mov	eax, DWORD PTR ___$ReturnUdt$[ebp]
	movss	xmm1, DWORD PTR _fScale$[ebp]
	movss	DWORD PTR [eax], xmm1

; 2747 : 	m.e01 = 0.0f;

	mov	DWORD PTR [eax+4], 0

; 2748 : 	m.e02 = 0.0f;

	mov	DWORD PTR [eax+8], 0

; 2749 : 	m.e03 = 0.0f;

	mov	DWORD PTR [eax+12], 0

; 2750 : 
; 2751 : 	m.e10 = 0.0f;

	mov	DWORD PTR [eax+16], 0

; 2752 : 	m.e11 = fScale;

	movss	DWORD PTR [eax+20], xmm1

; 2753 : 	m.e12 = 0.0f;

	mov	DWORD PTR [eax+24], 0

; 2754 : 	m.e13 = 0.0f;

	mov	DWORD PTR [eax+28], 0

; 2755 : 
; 2756 : 	m.e20 = 0.0f;

	mov	DWORD PTR [eax+32], 0

; 2757 : 	m.e21 = 0.0f;

	mov	DWORD PTR [eax+36], 0

; 2758 : 	m.e22 = fScale;

	movss	DWORD PTR [eax+40], xmm1

; 2759 : 	m.e23 = 0.0f;

	mov	DWORD PTR [eax+44], 0

; 2760 : 
; 2761 : 	m.e30 = 0.0f;

	mov	DWORD PTR [eax+48], 0

; 2762 : 	m.e31 = 0.0f;

	mov	DWORD PTR [eax+52], 0

; 2763 : 	m.e32 = 0.0f;

	mov	DWORD PTR [eax+56], 0

; 2764 : 	m.e33 = 1.0f;

	mov	DWORD PTR [eax+60], 1065353216		; 3f800000H

; 2765 : 
; 2766 : 	return m;
; 2767 : }

	pop	ebp
	ret	0
?MatrixScaling@gen@@YA?AVCMatrix4x4@1@M@Z ENDP		; gen::MatrixScaling
_TEXT	ENDS
; Function compile flags: /Ogtp
; File c:\users\simon\documents\github\post-processing\import\math\cmatrix4x4.cpp
;	COMDAT ?MatrixScaling@gen@@YA?AVCMatrix4x4@1@ABVCVector3@1@@Z
_TEXT	SEGMENT
___$ReturnUdt$ = 8					; size = 4
_scale$ = 12						; size = 4
?MatrixScaling@gen@@YA?AVCMatrix4x4@1@ABVCVector3@1@@Z PROC ; gen::MatrixScaling, COMDAT

; 2715 : {

	push	ebp
	mov	ebp, esp

; 2716 : 	CMatrix4x4 m;
; 2717 : 
; 2718 : 	m.e00 = scale.x;

	mov	edx, DWORD PTR ___$ReturnUdt$[ebp]
	mov	ecx, DWORD PTR _scale$[ebp]

; 2719 : 	m.e01 = 0.0f;

	mov	DWORD PTR [edx+4], 0
	mov	eax, DWORD PTR [ecx]
	mov	DWORD PTR [edx], eax

; 2720 : 	m.e02 = 0.0f;
; 2721 : 	m.e03 = 0.0f;
; 2722 : 
; 2723 : 	m.e10 = 0.0f;
; 2724 : 	m.e11 = scale.y;

	mov	eax, DWORD PTR [ecx+4]

; 2725 : 	m.e12 = 0.0f;
; 2726 : 	m.e13 = 0.0f;
; 2727 : 
; 2728 : 	m.e20 = 0.0f;
; 2729 : 	m.e21 = 0.0f;
; 2730 : 	m.e22 = scale.z;

	mov	ecx, DWORD PTR [ecx+8]
	mov	DWORD PTR [edx+20], eax

; 2731 : 	m.e23 = 0.0f;
; 2732 : 
; 2733 : 	m.e30 = 0.0f;
; 2734 : 	m.e31 = 0.0f;
; 2735 : 	m.e32 = 0.0f;
; 2736 : 	m.e33 = 1.0f;
; 2737 : 
; 2738 : 	return m;

	mov	eax, edx
	mov	DWORD PTR [edx+8], 0
	mov	DWORD PTR [edx+12], 0
	mov	DWORD PTR [edx+16], 0
	mov	DWORD PTR [edx+24], 0
	mov	DWORD PTR [edx+28], 0
	mov	DWORD PTR [edx+32], 0
	mov	DWORD PTR [edx+36], 0
	mov	DWORD PTR [edx+40], ecx
	mov	DWORD PTR [edx+44], 0
	mov	DWORD PTR [edx+48], 0
	mov	DWORD PTR [edx+52], 0
	mov	DWORD PTR [edx+56], 0
	mov	DWORD PTR [edx+60], 1065353216		; 3f800000H

; 2739 : }

	pop	ebp
	ret	0
?MatrixScaling@gen@@YA?AVCMatrix4x4@1@ABVCVector3@1@@Z ENDP ; gen::MatrixScaling
_TEXT	ENDS
; Function compile flags: /Ogtp
; File c:\users\simon\documents\github\post-processing\import\math\cmatrix4x4.cpp
; File c:\program files (x86)\microsoft visual studio 12.0\vc\include\math.h
; File c:\users\simon\documents\github\post-processing\import\math\cmatrix4x4.cpp
; File c:\program files (x86)\microsoft visual studio 12.0\vc\include\math.h
; File c:\users\simon\documents\github\post-processing\import\math\cmatrix4x4.cpp
; File c:\program files (x86)\microsoft visual studio 12.0\vc\include\math.h
; File c:\users\simon\documents\github\post-processing\import\math\cmatrix4x4.cpp
; File c:\program files (x86)\microsoft visual studio 12.0\vc\include\math.h
; File c:\users\simon\documents\github\post-processing\import\math\cmatrix4x4.cpp
; File c:\users\simon\documents\github\post-processing\import\math\cvector3.h
; File c:\users\simon\documents\github\post-processing\import\math\cmatrix4x4.cpp
; File c:\users\simon\documents\github\post-processing\import\math\cvector3.h
; File c:\program files (x86)\microsoft visual studio 12.0\vc\include\math.h
; File c:\users\simon\documents\github\post-processing\import\math\basemath.h
; File c:\users\simon\documents\github\post-processing\import\math\cmatrix4x4.cpp
;	COMDAT ?MatrixRotation@gen@@YA?AVCMatrix4x4@1@ABVCVector3@1@M@Z
_TEXT	SEGMENT
_e$2 = -276						; size = 4
_t$1$ = -272						; size = 4
_axisNorm$3 = -268					; size = 12
_c$1$ = -256						; size = 4
_sx$1$ = -252						; size = 4
_s$1$ = -252						; size = 4
$T4 = -248						; size = 76
$T5 = -172						; size = 76
$T6 = -96						; size = 76
__$ArrayPad$ = -20					; size = 4
__$EHRec$ = -16						; size = 16
___$ReturnUdt$ = 8					; size = 4
_axis$ = 12						; size = 4
_fAngle$ = 16						; size = 4
?MatrixRotation@gen@@YA?AVCMatrix4x4@1@ABVCVector3@1@M@Z PROC ; gen::MatrixRotation, COMDAT

; 2664 : {

	push	ebp
	mov	ebp, esp
	push	-1
	push	__ehhandler$?MatrixRotation@gen@@YA?AVCMatrix4x4@1@ABVCVector3@1@M@Z
	mov	eax, DWORD PTR fs:0
	push	eax
	sub	esp, 264				; 00000108H
	mov	eax, DWORD PTR ___security_cookie
	xor	eax, ebp
	mov	DWORD PTR __$ArrayPad$[ebp], eax
	push	ebx
	push	esi
	push	edi
	push	eax
	lea	eax, DWORD PTR __$EHRec$[ebp+4]
	mov	DWORD PTR fs:0, eax
	mov	DWORD PTR __$EHRec$[ebp], esp
	movss	xmm0, DWORD PTR _fAngle$[ebp]
	mov	esi, DWORD PTR ___$ReturnUdt$[ebp]
	mov	edi, DWORD PTR _axis$[ebp]
; File c:\program files (x86)\microsoft visual studio 12.0\vc\include\math.h

; 765  :     return (float)sin(_X);

	cvtps2pd xmm0, xmm0
; File c:\users\simon\documents\github\post-processing\import\math\cmatrix4x4.cpp

; 2665 : 	GEN_GUARD;

	mov	DWORD PTR __$EHRec$[ebp+12], 0
; File c:\program files (x86)\microsoft visual studio 12.0\vc\include\math.h

; 765  :     return (float)sin(_X);

	call	__libm_sse2_sin_precise
	cvtsd2ss xmm0, xmm0
	movss	DWORD PTR _s$1$[ebp], xmm0
	movss	xmm0, DWORD PTR _fAngle$[ebp]

; 664  :     return (float)cos(_X);

	cvtps2pd xmm0, xmm0
	call	__libm_sse2_cos_precise
	xorps	xmm1, xmm1
; File c:\users\simon\documents\github\post-processing\import\math\cmatrix4x4.cpp

; 2673 : 	CVector3 axisNorm = Normalise( axis );

	lea	eax, DWORD PTR _axisNorm$3[ebp]
; File c:\program files (x86)\microsoft visual studio 12.0\vc\include\math.h

; 664  :     return (float)cos(_X);

	cvtsd2ss xmm1, xmm0
; File c:\users\simon\documents\github\post-processing\import\math\cmatrix4x4.cpp

; 2673 : 	CVector3 axisNorm = Normalise( axis );

	push	edi
	push	eax
	movss	xmm0, DWORD PTR __real@3f800000
	subss	xmm0, xmm1
; File c:\program files (x86)\microsoft visual studio 12.0\vc\include\math.h

; 664  :     return (float)cos(_X);

	movss	DWORD PTR _c$1$[ebp], xmm1
; File c:\users\simon\documents\github\post-processing\import\math\cmatrix4x4.cpp

; 2671 : 	TFloat32 t = 1.0f - c;

	movss	DWORD PTR _t$1$[ebp], xmm0

; 2673 : 	CVector3 axisNorm = Normalise( axis );

	call	?Normalise@gen@@YA?AVCVector3@1@ABV21@@Z ; gen::Normalise
; File c:\users\simon\documents\github\post-processing\import\math\cvector3.h

; 182  : 		return gen::IsZero( x*x + y*y + z*z );

	movss	xmm2, DWORD PTR _axisNorm$3[ebp+4]
; File c:\users\simon\documents\github\post-processing\import\math\cmatrix4x4.cpp

; 2673 : 	CVector3 axisNorm = Normalise( axis );

	add	esp, 8
; File c:\users\simon\documents\github\post-processing\import\math\cvector3.h

; 182  : 		return gen::IsZero( x*x + y*y + z*z );

	movss	xmm5, DWORD PTR _axisNorm$3[ebp]
	movaps	xmm1, xmm2
	movss	xmm6, DWORD PTR _axisNorm$3[ebp+8]
	movaps	xmm0, xmm5
	mulss	xmm0, xmm5
	mulss	xmm1, xmm2
	addss	xmm1, xmm0
	movaps	xmm0, xmm6
	mulss	xmm0, xmm6
	addss	xmm1, xmm0
	xorps	xmm0, xmm0
; File c:\program files (x86)\microsoft visual studio 12.0\vc\include\math.h

; 687  :     return (float)fabs(_X);

	cvtss2sd xmm0, xmm1
	andpd	xmm0, QWORD PTR __xmm@7fffffffffffffff7fffffffffffffff
	cvtpd2ps xmm1, xmm0
; File c:\users\simon\documents\github\post-processing\import\math\basemath.h

; 292  : 	return Abs( x ) < fEpsilon;

	movss	xmm0, DWORD PTR __real@350637bd
	comiss	xmm0, xmm1
; File c:\users\simon\documents\github\post-processing\import\math\cmatrix4x4.cpp

; 2674 : 	GEN_ASSERT( !axisNorm.IsZero(), "Zero length axis" );

	jbe	SHORT $LN1@MatrixRota
	push	2674					; 00000a72H
	push	OFFSET ??_C@_0BL@PHCLKOGI@Import?2Math?2CMatrix4x4?4cpp?$AA@
	push	OFFSET ??_C@_0BB@OPALDBID@Zero?5length?5axis?$AA@
	lea	ecx, DWORD PTR $T5[ebp]
	call	??0CFatalException@gen@@QAE@PBD0H@Z	; gen::CFatalException::CFatalException
	push	OFFSET __TI1?AVCFatalException@gen@@
	lea	eax, DWORD PTR $T5[ebp]
	push	eax
	call	__CxxThrowException@8
$LN38@MatrixRota:
$LN1@MatrixRota:

; 2675 : 
; 2676 : 	TFloat32 sx = s * axisNorm.x;

	movss	xmm1, DWORD PTR _s$1$[ebp]
	movaps	xmm0, xmm5
	mulss	xmm0, xmm1

; 2677 : 	TFloat32 sy = s * axisNorm.y;

	movaps	xmm7, xmm2

; 2678 : 	TFloat32 sz = s * axisNorm.z;
; 2679 : 	TFloat32 tx = t * axisNorm.x;  
; 2680 : 	TFloat32 ty = t * axisNorm.y;
; 2681 : 	TFloat32 tz = t * axisNorm.z;
; 2682 : 	TFloat32 txy = ty * axisNorm.x;
; 2683 : 	TFloat32 tyz = tz * axisNorm.y;
; 2684 : 	TFloat32 tzx = tx * axisNorm.z;
; 2685 : 
; 2686 : 	m.e00 = tx * axisNorm.x + c;
; 2687 : 	m.e01 = txy + sz;
; 2688 : 	m.e02 = tzx - sy;
; 2689 : 	m.e03 = 0.0f;

	mov	DWORD PTR [esi+12], 0

; 2690 : 
; 2691 : 	m.e10 = txy - sz; 
; 2692 : 	m.e11 = ty * axisNorm.y + c;
; 2693 : 	m.e12 = tyz + sx;
; 2694 : 	m.e13 = 0.0f;
; 2695 : 
; 2696 : 	m.e20 = tzx + sy;
; 2697 : 	m.e21 = tyz - sx;
; 2698 : 	m.e22 = tz * axisNorm.z + c;
; 2699 : 	m.e23 = 0.0f;
; 2700 : 
; 2701 : 	m.e30 = 0.0f;
; 2702 : 	m.e31 = 0.0f;
; 2703 : 	m.e32 = 0.0f;
; 2704 : 	m.e33 = 1.0f;
; 2705 : 
; 2706 : 	return m;

	mov	eax, esi
	mulss	xmm7, xmm1
	movaps	xmm4, xmm6
	mov	DWORD PTR [esi+28], 0
	mulss	xmm4, xmm1
	movaps	xmm3, xmm2
	mov	DWORD PTR [esi+44], 0
	movss	xmm1, DWORD PTR _t$1$[ebp]
	movss	DWORD PTR _sx$1$[ebp], xmm0
	movaps	xmm0, xmm5
	mulss	xmm0, xmm1
	mov	DWORD PTR [esi+48], 0
	mulss	xmm3, xmm1
	mov	DWORD PTR [esi+52], 0
	mulss	xmm6, xmm1
	mov	DWORD PTR [esi+56], 0
	movaps	xmm1, xmm3
	mov	DWORD PTR [esi+60], 1065353216		; 3f800000H
	mulss	xmm1, xmm5
	movaps	xmm5, xmm6
	mulss	xmm3, DWORD PTR _axisNorm$3[ebp+4]
	mulss	xmm5, xmm2
	movaps	xmm2, xmm0
	mulss	xmm0, DWORD PTR _axisNorm$3[ebp]
	mulss	xmm2, DWORD PTR _axisNorm$3[ebp+8]
	addss	xmm0, DWORD PTR _c$1$[ebp]
	mulss	xmm6, DWORD PTR _axisNorm$3[ebp+8]
	addss	xmm3, DWORD PTR _c$1$[ebp]
	addss	xmm6, DWORD PTR _c$1$[ebp]
	movss	DWORD PTR [esi], xmm0
	movaps	xmm0, xmm1
	addss	xmm0, xmm4
	subss	xmm1, xmm4
	movss	DWORD PTR [esi+20], xmm3
	movss	DWORD PTR [esi+40], xmm6
	movss	DWORD PTR [esi+4], xmm0
	movaps	xmm0, xmm2
	subss	xmm0, xmm7
	movss	DWORD PTR [esi+16], xmm1
	addss	xmm2, xmm7
	movss	DWORD PTR [esi+8], xmm0
	movaps	xmm0, xmm5
	addss	xmm0, DWORD PTR _sx$1$[ebp]
	subss	xmm5, DWORD PTR _sx$1$[ebp]
	movss	DWORD PTR [esi+32], xmm2
	movss	DWORD PTR [esi+24], xmm0
	movss	DWORD PTR [esi+36], xmm5

; 2709 : }

	mov	ecx, DWORD PTR __$EHRec$[ebp+4]
	mov	DWORD PTR fs:0, ecx
	pop	ecx
	pop	edi
	pop	esi
	pop	ebx
	mov	ecx, DWORD PTR __$ArrayPad$[ebp]
	xor	ecx, ebp
	call	@__security_check_cookie@4
	mov	esp, ebp
	pop	ebp
	ret	0
__catch$?MatrixRotation@gen@@YA?AVCMatrix4x4@1@ABVCVector3@1@M@Z$0:

; 2707 : 
; 2708 : 	GEN_ENDGUARD;

	mov	esi, DWORD PTR _e$2[ebp]
	mov	ecx, esi
	push	0
	push	OFFSET ??_C@_00CNPNBAHC@?$AA@
	push	OFFSET ??_C@_0BE@LMIKLAKG@gen?3?3MatrixRotation?$AA@
	call	?AppendToCallStack@CFatalException@gen@@QAEXPBD0_N@Z ; gen::CFatalException::AppendToCallStack
	push	esi
	lea	ecx, DWORD PTR $T6[ebp]
	call	??0CFatalException@gen@@QAE@ABV01@@Z
	push	OFFSET __TI1?AVCFatalException@gen@@
	lea	eax, DWORD PTR $T6[ebp]
	push	eax
	call	__CxxThrowException@8
$LN39@MatrixRota:
__catch$?MatrixRotation@gen@@YA?AVCMatrix4x4@1@ABVCVector3@1@M@Z$1:
	push	OFFSET ??_C@_00CNPNBAHC@?$AA@
	push	OFFSET ??_C@_0BE@LMIKLAKG@gen?3?3MatrixRotation?$AA@
	push	OFFSET ??_C@_0BL@PHCLKOGI@Import?2Math?2CMatrix4x4?4cpp?$AA@
	lea	ecx, DWORD PTR $T4[ebp]
	call	??0CFatalException@gen@@QAE@PBD00@Z	; gen::CFatalException::CFatalException
	push	OFFSET __TI1?AVCFatalException@gen@@
	lea	eax, DWORD PTR $T4[ebp]
	push	eax
	call	__CxxThrowException@8
$LN40@MatrixRota:
$LN37@MatrixRota:
	int	3
_TEXT	ENDS
;	COMDAT text$x
text$x	SEGMENT
__ehhandler$?MatrixRotation@gen@@YA?AVCMatrix4x4@1@ABVCVector3@1@M@Z:
	mov	edx, DWORD PTR [esp+8]
	lea	eax, DWORD PTR [edx+12]
	mov	ecx, DWORD PTR [edx-280]
	xor	ecx, eax
	call	@__security_check_cookie@4
	mov	ecx, DWORD PTR [edx-8]
	xor	ecx, eax
	call	@__security_check_cookie@4
	mov	eax, OFFSET __ehfuncinfo$?MatrixRotation@gen@@YA?AVCMatrix4x4@1@ABVCVector3@1@M@Z
	jmp	___CxxFrameHandler3
text$x	ENDS
?MatrixRotation@gen@@YA?AVCMatrix4x4@1@ABVCVector3@1@M@Z ENDP ; gen::MatrixRotation
; Function compile flags: /Ogtp
; File c:\users\simon\documents\github\post-processing\import\math\cmatrix4x4.cpp
; File c:\program files (x86)\microsoft visual studio 12.0\vc\include\math.h
; File c:\users\simon\documents\github\post-processing\import\math\cmatrix4x4.cpp
; File c:\program files (x86)\microsoft visual studio 12.0\vc\include\math.h
; File c:\users\simon\documents\github\post-processing\import\math\cmatrix4x4.cpp
; File c:\program files (x86)\microsoft visual studio 12.0\vc\include\math.h
; File c:\users\simon\documents\github\post-processing\import\math\cmatrix4x4.cpp
;	COMDAT ?MatrixRotation@gen@@YA?AVCMatrix4x4@1@VCVector3@1@W4ERotationOrder@1@@Z
_TEXT	SEGMENT
_e$2 = -272						; size = 4
_sZ$1$ = -268						; size = 4
_cY$1$ = -264						; size = 4
_sY$1$ = -260						; size = 4
_sX$1$ = -256						; size = 4
_cX$1$ = -252						; size = 4
$T3 = -248						; size = 76
$T4 = -172						; size = 76
$T5 = -96						; size = 76
__$ArrayPad$ = -20					; size = 4
__$EHRec$ = -16						; size = 16
___$ReturnUdt$ = 8					; size = 4
_angles$ = 12						; size = 12
_eRotOrder$ = 24					; size = 4
?MatrixRotation@gen@@YA?AVCMatrix4x4@1@VCVector3@1@W4ERotationOrder@1@@Z PROC ; gen::MatrixRotation, COMDAT

; 2527 : {

	push	ebp
	mov	ebp, esp
	push	-1
	push	__ehhandler$?MatrixRotation@gen@@YA?AVCMatrix4x4@1@VCVector3@1@W4ERotationOrder@1@@Z
	mov	eax, DWORD PTR fs:0
	push	eax
	sub	esp, 260				; 00000104H
	mov	eax, DWORD PTR ___security_cookie
	xor	eax, ebp
	mov	DWORD PTR __$ArrayPad$[ebp], eax
	push	ebx
	push	esi
	push	edi
	push	eax
	lea	eax, DWORD PTR __$EHRec$[ebp+4]
	mov	DWORD PTR fs:0, eax
	mov	DWORD PTR __$EHRec$[ebp], esp
	movss	xmm0, DWORD PTR _angles$[ebp]
	mov	esi, DWORD PTR ___$ReturnUdt$[ebp]
; File c:\program files (x86)\microsoft visual studio 12.0\vc\include\math.h

; 765  :     return (float)sin(_X);

	cvtps2pd xmm0, xmm0
; File c:\users\simon\documents\github\post-processing\import\math\cmatrix4x4.cpp

; 2528 : 	GEN_GUARD;

	mov	DWORD PTR __$EHRec$[ebp+12], 0
; File c:\program files (x86)\microsoft visual studio 12.0\vc\include\math.h

; 765  :     return (float)sin(_X);

	call	__libm_sse2_sin_precise
	cvtsd2ss xmm0, xmm0
	movss	DWORD PTR _sX$1$[ebp], xmm0
	movss	xmm0, DWORD PTR _angles$[ebp]

; 664  :     return (float)cos(_X);

	cvtps2pd xmm0, xmm0
	call	__libm_sse2_cos_precise
	cvtsd2ss xmm0, xmm0
	movss	DWORD PTR _cX$1$[ebp], xmm0
	movss	xmm0, DWORD PTR _angles$[ebp+4]

; 765  :     return (float)sin(_X);

	cvtps2pd xmm0, xmm0
	call	__libm_sse2_sin_precise
	cvtsd2ss xmm0, xmm0
	movss	DWORD PTR _sY$1$[ebp], xmm0
	movss	xmm0, DWORD PTR _angles$[ebp+4]

; 664  :     return (float)cos(_X);

	cvtps2pd xmm0, xmm0
	call	__libm_sse2_cos_precise
	cvtsd2ss xmm0, xmm0
	movss	DWORD PTR _cY$1$[ebp], xmm0
	movss	xmm0, DWORD PTR _angles$[ebp+8]

; 765  :     return (float)sin(_X);

	cvtps2pd xmm0, xmm0
	call	__libm_sse2_sin_precise
	cvtsd2ss xmm0, xmm0
	movss	DWORD PTR _sZ$1$[ebp], xmm0
	movss	xmm0, DWORD PTR _angles$[ebp+8]

; 664  :     return (float)cos(_X);

	cvtps2pd xmm0, xmm0
	call	__libm_sse2_cos_precise
; File c:\users\simon\documents\github\post-processing\import\math\cmatrix4x4.cpp

; 2537 : 	switch (eRotOrder)

	mov	eax, DWORD PTR _eRotOrder$[ebp]
	xorps	xmm6, xmm6
; File c:\program files (x86)\microsoft visual studio 12.0\vc\include\math.h

; 664  :     return (float)cos(_X);

	cvtsd2ss xmm6, xmm0
; File c:\users\simon\documents\github\post-processing\import\math\cmatrix4x4.cpp

; 2537 : 	switch (eRotOrder)

	cmp	eax, 5
	ja	$LN1@MatrixRota
	jmp	DWORD PTR $LN65@MatrixRota[eax*4]
$LN7@MatrixRota:

; 2538 : 	{
; 2539 : 		case kZYX:
; 2540 : 		{
; 2541 : 			m.e00 = cZ * cY;

	movss	xmm4, DWORD PTR _cY$1$[ebp]
	movaps	xmm0, xmm6

; 2542 : 			m.e01 = sZ * cX + cZ * sY * sX;

	movss	xmm5, DWORD PTR _sY$1$[ebp]
	movaps	xmm2, xmm6
	movss	xmm3, DWORD PTR _sZ$1$[ebp]
	movss	xmm7, DWORD PTR _sX$1$[ebp]
	mulss	xmm0, xmm4
	mulss	xmm2, xmm5
	movss	DWORD PTR [esi], xmm0
	movaps	xmm0, xmm3
	mulss	xmm0, DWORD PTR _cX$1$[ebp]
	movaps	xmm1, xmm2

; 2543 : 			m.e02 = sZ * sX + -cZ * sY * cX;
; 2544 : 			m.e03 = 0.0f;
; 2545 : 
; 2546 : 			m.e10 = -sZ * cY;
; 2547 : 			m.e11 = cZ * cX + -sZ * sY * sX;
; 2548 : 			m.e12 = cZ * sX + sZ * sY * cX;
; 2549 : 			m.e13 = 0.0f;
; 2550 : 
; 2551 : 			m.e20 = sY;

	movss	DWORD PTR [esi+32], xmm5
	mulss	xmm2, DWORD PTR _cX$1$[ebp]
	mulss	xmm1, xmm7
	addss	xmm1, xmm0
	movaps	xmm0, xmm3
	mulss	xmm0, xmm7
	subss	xmm0, xmm2
	movss	DWORD PTR [esi+4], xmm1
	movaps	xmm1, xmm6
	mulss	xmm6, xmm7
	mulss	xmm1, DWORD PTR _cX$1$[ebp]
	movss	DWORD PTR [esi+8], xmm0
	movaps	xmm0, xmm3
	mulss	xmm0, xmm4
	mulss	xmm3, xmm5
	xorps	xmm0, DWORD PTR __xmm@80000000800000008000000080000000
	movss	DWORD PTR [esi+16], xmm0
	movaps	xmm0, xmm3
	mulss	xmm3, DWORD PTR _cX$1$[ebp]
	mulss	xmm0, xmm7
	addss	xmm3, xmm6
	subss	xmm1, xmm0

; 2552 : 			m.e21 = -cY * sX;

	movaps	xmm0, xmm4
	mulss	xmm0, xmm7
	movss	DWORD PTR [esi+24], xmm3
	xorps	xmm0, DWORD PTR __xmm@80000000800000008000000080000000
	movss	DWORD PTR [esi+20], xmm1
	movss	DWORD PTR [esi+36], xmm0

; 2553 : 			m.e22 = cY * cX;
; 2554 : 			break;

	jmp	$LN59@MatrixRota
$LN6@MatrixRota:

; 2555 : 		}
; 2556 : 		case kYZX:
; 2557 : 		{
; 2558 : 			m.e00 = cY * cZ;

	movss	xmm4, DWORD PTR _cY$1$[ebp]
	movaps	xmm0, xmm6

; 2559 : 			m.e01 = cY * sZ * cX + sY * sX;

	movss	xmm3, DWORD PTR _sZ$1$[ebp]
	movss	xmm5, DWORD PTR _sY$1$[ebp]
	movaps	xmm2, xmm3
	movss	xmm7, DWORD PTR _sX$1$[ebp]
	mulss	xmm0, xmm4
	mulss	xmm2, xmm4
	movss	DWORD PTR [esi], xmm0
	movaps	xmm0, xmm5
	mulss	xmm0, xmm7
	movaps	xmm1, xmm2

; 2560 : 			m.e02 = cY * sZ * sX + -sY * cX;

	mulss	xmm2, xmm7
	mulss	xmm1, DWORD PTR _cX$1$[ebp]
	addss	xmm1, xmm0
	movaps	xmm0, xmm5
	mulss	xmm0, DWORD PTR _cX$1$[ebp]
	subss	xmm2, xmm0
	movss	DWORD PTR [esi+4], xmm1

; 2561 : 			m.e03 = 0.0f;
; 2562 : 
; 2563 : 			m.e10 = -sZ;

	movaps	xmm0, xmm3

; 2564 : 			m.e11 = cZ * cX;
; 2565 : 			m.e12 = cZ * sX;
; 2566 : 			m.e13 = 0.0f;
; 2567 : 
; 2568 : 			m.e20 = sY * cZ;
; 2569 : 			m.e21 = sY * sZ * cX + -cY * sX;

	mulss	xmm3, xmm5
	xorps	xmm0, DWORD PTR __xmm@80000000800000008000000080000000
	movss	DWORD PTR [esi+16], xmm0
	movaps	xmm0, xmm6
	movss	DWORD PTR [esi+8], xmm2
	movaps	xmm1, xmm3
	movss	xmm2, DWORD PTR _cX$1$[ebp]
	mulss	xmm0, xmm2
	mulss	xmm1, xmm2
	movss	DWORD PTR [esi+20], xmm0
	movaps	xmm0, xmm6
	mulss	xmm0, xmm7

; 2570 : 			m.e22 = sY * sZ * sX + cY * cX;

	mulss	xmm3, xmm7
	movss	DWORD PTR [esi+24], xmm0
	movaps	xmm0, xmm4
	mulss	xmm0, xmm7
	mulss	xmm4, xmm2
	subss	xmm1, xmm0
	mulss	xmm6, xmm5
	addss	xmm3, xmm4
	movss	DWORD PTR [esi+32], xmm6
	movss	DWORD PTR [esi+36], xmm1
	movss	DWORD PTR [esi+40], xmm3

; 2571 : 			break;

	jmp	$LN64@MatrixRota
$LN5@MatrixRota:

; 2572 : 		}
; 2573 : 		case kXZY:
; 2574 : 		{
; 2575 : 			m.e00 = cZ * cY;

	movss	xmm5, DWORD PTR _cY$1$[ebp]
	movaps	xmm0, xmm6

; 2576 : 			m.e01 = sZ;
; 2577 : 			m.e02 = -cZ * sY;

	movss	xmm7, DWORD PTR _sY$1$[ebp]
	movss	xmm4, DWORD PTR _sZ$1$[ebp]

; 2578 : 			m.e03 = 0.0f;
; 2579 : 
; 2580 : 			m.e10 = -cX * sZ * cY + sX * sY;

	movaps	xmm1, xmm7
	mulss	xmm1, DWORD PTR _sX$1$[ebp]
	movaps	xmm2, xmm4
	mov	DWORD PTR [esi+12], 0
	mulss	xmm2, DWORD PTR _cX$1$[ebp]
	mulss	xmm0, xmm5
	movss	DWORD PTR [esi+4], xmm4

; 2581 : 			m.e11 = cX * cZ;
; 2582 : 			m.e12 = cX * sZ * sY + sX * cY;
; 2583 : 			m.e13 = 0.0f;
; 2584 : 
; 2585 : 			m.e20 = sX * sZ * cY + cX * sY;

	mulss	xmm4, DWORD PTR _sX$1$[ebp]
	movss	DWORD PTR [esi], xmm0
	movaps	xmm0, xmm6
	mulss	xmm0, xmm7
	xorps	xmm0, DWORD PTR __xmm@80000000800000008000000080000000
	movss	DWORD PTR [esi+8], xmm0
	movaps	xmm0, xmm2
	mulss	xmm0, xmm5
	mulss	xmm2, xmm7
	subss	xmm1, xmm0
	movaps	xmm0, xmm6
	mulss	xmm0, DWORD PTR _cX$1$[ebp]

; 2586 : 			m.e21 = -sX * cZ;

	mulss	xmm6, DWORD PTR _sX$1$[ebp]
	movss	DWORD PTR [esi+20], xmm0
	movaps	xmm0, xmm5
	mulss	xmm0, DWORD PTR _sX$1$[ebp]
	xorps	xmm6, DWORD PTR __xmm@80000000800000008000000080000000
	movss	DWORD PTR [esi+16], xmm1
	movaps	xmm1, xmm4
	addss	xmm2, xmm0
	mulss	xmm1, xmm5

; 2587 : 			m.e22 = -sX * sZ * sY + cX * cY;

	mulss	xmm5, DWORD PTR _cX$1$[ebp]
	movaps	xmm0, xmm7
	mulss	xmm0, DWORD PTR _cX$1$[ebp]
	mulss	xmm4, xmm7
	addss	xmm1, xmm0
	movss	DWORD PTR [esi+24], xmm2
	movss	DWORD PTR [esi+36], xmm6
	subss	xmm5, xmm4
	movss	DWORD PTR [esi+32], xmm1
	movss	DWORD PTR [esi+40], xmm5

; 2588 : 			break;

	jmp	$LN60@MatrixRota
$LN4@MatrixRota:

; 2589 : 		}
; 2590 : 		case kZXY:
; 2591 : 		{
; 2592 : 			m.e00 = cZ * cY + sZ * sX * sY;

	movss	xmm3, DWORD PTR _sZ$1$[ebp]
	movaps	xmm0, xmm6
	movss	xmm7, DWORD PTR _sX$1$[ebp]
	movaps	xmm2, xmm3
	movss	xmm5, DWORD PTR _sY$1$[ebp]
	movss	xmm4, DWORD PTR _cY$1$[ebp]
	mulss	xmm2, xmm7
	mulss	xmm0, xmm4
	movaps	xmm1, xmm2

; 2593 : 			m.e01 = sZ * cX;
; 2594 : 			m.e02 = -cZ * sY + sZ * sX * cY;

	mulss	xmm2, xmm4
	mulss	xmm1, xmm5
	addss	xmm1, xmm0
	movaps	xmm0, xmm3
	mulss	xmm0, DWORD PTR _cX$1$[ebp]
	movss	DWORD PTR [esi+4], xmm0
	movaps	xmm0, xmm6
	mulss	xmm0, xmm5
	movss	DWORD PTR [esi], xmm1
	subss	xmm2, xmm0

; 2595 : 			m.e03 = 0.0f;
; 2596 : 
; 2597 : 			m.e10 = -sZ * cY + cZ * sX * sY;

	movaps	xmm0, xmm3
	mulss	xmm0, xmm4

; 2598 : 			m.e11 = cZ * cX;
; 2599 : 			m.e12 = sZ * sY + cZ * sX * cY;

	mulss	xmm3, xmm5
	movss	DWORD PTR [esi+8], xmm2
	movaps	xmm2, xmm6
	mulss	xmm2, xmm7

; 2600 : 			m.e13 = 0.0f;
; 2601 : 
; 2602 : 			m.e20 = cX * sY;
; 2603 : 			m.e21 = -sX;

	xorps	xmm7, DWORD PTR __xmm@80000000800000008000000080000000
	movss	DWORD PTR [esi+36], xmm7
	movaps	xmm1, xmm2
	mulss	xmm2, xmm4
	mulss	xmm1, xmm5
	addss	xmm2, xmm3
	subss	xmm1, xmm0
	movss	xmm0, DWORD PTR _cX$1$[ebp]
	mulss	xmm6, xmm0
	mulss	xmm5, xmm0
	movss	DWORD PTR [esi+16], xmm1
	movss	DWORD PTR [esi+20], xmm6
	movss	DWORD PTR [esi+24], xmm2
	movss	DWORD PTR [esi+32], xmm5

; 2604 : 			m.e22 = cX * cY;

	mulss	xmm4, xmm0

; 2605 : 			break;

	jmp	$LN63@MatrixRota
$LN3@MatrixRota:

; 2606 : 		}
; 2607 : 		case kYXZ:
; 2608 : 		{
; 2609 : 			m.e00 = cY * cZ + -sY * sX * sZ;

	movss	xmm5, DWORD PTR _sY$1$[ebp]
	movaps	xmm1, xmm6
	movss	xmm7, DWORD PTR _sX$1$[ebp]
	movaps	xmm2, xmm5
	movss	xmm3, DWORD PTR _sZ$1$[ebp]
	movss	xmm4, DWORD PTR _cY$1$[ebp]
	mulss	xmm2, xmm7
	mulss	xmm1, xmm4
	movaps	xmm0, xmm2

; 2610 : 			m.e01 = cY * sZ + sY * sX * cZ;
; 2611 : 			m.e02 = -sY * cX;
; 2612 : 			m.e03 = 0.0f;
; 2613 : 
; 2614 : 			m.e10 = -cX * sZ;
; 2615 : 			m.e11 = cX * cZ;
; 2616 : 			m.e12 = sX;

	movss	DWORD PTR [esi+24], xmm7
	mulss	xmm0, xmm3
	mulss	xmm2, xmm6
	subss	xmm1, xmm0
	movaps	xmm0, xmm3
	mulss	xmm0, xmm4
	addss	xmm2, xmm0
	movss	DWORD PTR [esi], xmm1
	movaps	xmm0, xmm5
	movss	DWORD PTR [esi+4], xmm2
	movss	xmm2, DWORD PTR _cX$1$[ebp]
	mulss	xmm0, xmm2
	xorps	xmm0, DWORD PTR __xmm@80000000800000008000000080000000
	movss	DWORD PTR [esi+8], xmm0
	movaps	xmm0, xmm3
	mulss	xmm0, xmm2
	xorps	xmm0, DWORD PTR __xmm@80000000800000008000000080000000
	movss	DWORD PTR [esi+16], xmm0
	movaps	xmm0, xmm6
	mulss	xmm0, xmm2

; 2617 : 			m.e13 = 0.0f;
; 2618 : 
; 2619 : 			m.e20 = sY * cZ + cY * sX * sZ;

	movaps	xmm2, xmm4
	mulss	xmm2, xmm7
	movss	DWORD PTR [esi+20], xmm0
	movaps	xmm0, xmm6
	mulss	xmm0, xmm5
	movaps	xmm1, xmm2

; 2620 : 			m.e21 = sY * sZ + -cY * sX * cZ;

	mulss	xmm2, xmm6
	mulss	xmm1, xmm3
	mulss	xmm3, xmm5
	subss	xmm3, xmm2
	movss	DWORD PTR [esi+36], xmm3

; 2621 : 			m.e22 = cY * cX;
; 2622 : 			break;

	jmp	$LN62@MatrixRota
$LN2@MatrixRota:

; 2623 : 		}
; 2624 : 		case kXYZ:
; 2625 : 		{
; 2626 : 			m.e00 = cY * cZ;

	movss	xmm4, DWORD PTR _cY$1$[ebp]
	movaps	xmm0, xmm6

; 2627 : 			m.e01 = cY * sZ;

	movss	xmm3, DWORD PTR _sZ$1$[ebp]

; 2628 : 			m.e02 = -sY;

	movss	xmm5, DWORD PTR _sY$1$[ebp]

; 2630 : 
; 2631 : 			m.e10 = sX * sY * cZ + -cX * sZ;

	movss	xmm7, DWORD PTR _sX$1$[ebp]
	movaps	xmm2, xmm5
	mulss	xmm0, xmm4
	mulss	xmm2, xmm7
	movss	DWORD PTR [esi], xmm0
	movaps	xmm0, xmm3
	mulss	xmm0, xmm4
	movaps	xmm1, xmm2

; 2632 : 			m.e11 = sX * sY * sZ + cX * cZ;

	mulss	xmm2, xmm3
	movss	DWORD PTR [esi+4], xmm0
	movaps	xmm0, xmm5
	xorps	xmm0, DWORD PTR __xmm@80000000800000008000000080000000

; 2635 : 
; 2636 : 			m.e20 = cX * sY * cZ + sX * sZ;

	mulss	xmm5, DWORD PTR _cX$1$[ebp]
	movss	DWORD PTR [esi+8], xmm0
	movaps	xmm0, xmm3
	mulss	xmm0, DWORD PTR _cX$1$[ebp]
	mulss	xmm1, xmm6
	subss	xmm1, xmm0
	movaps	xmm0, xmm6
	mulss	xmm0, DWORD PTR _cX$1$[ebp]
	movss	DWORD PTR [esi+16], xmm1
	addss	xmm2, xmm0
	movaps	xmm1, xmm5
	movaps	xmm0, xmm4
	mulss	xmm1, xmm6

; 2637 : 			m.e21 = cX * sY * sZ + -sX * cZ;

	mulss	xmm5, xmm3
	mulss	xmm6, xmm7
	mulss	xmm0, xmm7
	subss	xmm5, xmm6
	movss	DWORD PTR [esi+20], xmm2
	movss	DWORD PTR [esi+24], xmm0
	movaps	xmm0, xmm3
	mulss	xmm0, xmm7
	movss	DWORD PTR [esi+36], xmm5
$LN62@MatrixRota:

; 2635 : 
; 2636 : 			m.e20 = cX * sY * cZ + sX * sZ;

	addss	xmm1, xmm0
	movss	DWORD PTR [esi+32], xmm1
$LN59@MatrixRota:

; 2638 : 			m.e22 = cX * cY;

	mulss	xmm4, DWORD PTR _cX$1$[ebp]
$LN63@MatrixRota:
	movss	DWORD PTR [esi+40], xmm4
$LN64@MatrixRota:

; 2629 : 			m.e03 = 0.0f;

	mov	DWORD PTR [esi+12], 0
$LN60@MatrixRota:

; 2633 : 			m.e12 = sX * cY;
; 2634 : 			m.e13 = 0.0f;

	mov	DWORD PTR [esi+28], 0

; 2644 : 	}
; 2645 : 	m.e23 = 0.0f;
; 2646 : 
; 2647 : 	m.e30 = 0.0f;
; 2648 : 	m.e31 = 0.0f;
; 2649 : 	m.e32 = 0.0f;
; 2650 : 	m.e33 = 1.0f;
; 2651 : 
; 2652 : 	return m;

	mov	eax, esi
	mov	DWORD PTR [esi+44], 0
	mov	DWORD PTR [esi+48], 0
	mov	DWORD PTR [esi+52], 0
	mov	DWORD PTR [esi+56], 0
	mov	DWORD PTR [esi+60], 1065353216		; 3f800000H

; 2655 : }

	mov	ecx, DWORD PTR __$EHRec$[ebp+4]
	mov	DWORD PTR fs:0, ecx
	pop	ecx
	pop	edi
	pop	esi
	pop	ebx
	mov	ecx, DWORD PTR __$ArrayPad$[ebp]
	xor	ecx, ebp
	call	@__security_check_cookie@4
	mov	esp, ebp
	pop	ebp
	ret	0
$LN1@MatrixRota:

; 2639 : 			break;
; 2640 : 		}
; 2641 : 
; 2642 : 		default:
; 2643 : 			GEN_ERROR( "Invalid parameter" );

	push	2643					; 00000a53H
	push	OFFSET ??_C@_0BL@PHCLKOGI@Import?2Math?2CMatrix4x4?4cpp?$AA@
	push	OFFSET ??_C@_0BC@DBAKKFEN@Invalid?5parameter?$AA@
	lea	ecx, DWORD PTR $T3[ebp]
	call	??0CFatalException@gen@@QAE@PBD0H@Z	; gen::CFatalException::CFatalException
	push	OFFSET __TI1?AVCFatalException@gen@@
	lea	eax, DWORD PTR $T3[ebp]
	push	eax
	call	__CxxThrowException@8
$LN66@MatrixRota:
__catch$?MatrixRotation@gen@@YA?AVCMatrix4x4@1@VCVector3@1@W4ERotationOrder@1@@Z$0:

; 2653 : 
; 2654 : 	GEN_ENDGUARD;

	mov	esi, DWORD PTR _e$2[ebp]
	mov	ecx, esi
	push	0
	push	OFFSET ??_C@_00CNPNBAHC@?$AA@
	push	OFFSET ??_C@_0BE@LMIKLAKG@gen?3?3MatrixRotation?$AA@
	call	?AppendToCallStack@CFatalException@gen@@QAEXPBD0_N@Z ; gen::CFatalException::AppendToCallStack
	push	esi
	lea	ecx, DWORD PTR $T4[ebp]
	call	??0CFatalException@gen@@QAE@ABV01@@Z
	push	OFFSET __TI1?AVCFatalException@gen@@
	lea	eax, DWORD PTR $T4[ebp]
	push	eax
	call	__CxxThrowException@8
$LN67@MatrixRota:
__catch$?MatrixRotation@gen@@YA?AVCMatrix4x4@1@VCVector3@1@W4ERotationOrder@1@@Z$1:
	push	OFFSET ??_C@_00CNPNBAHC@?$AA@
	push	OFFSET ??_C@_0BE@LMIKLAKG@gen?3?3MatrixRotation?$AA@
	push	OFFSET ??_C@_0BL@PHCLKOGI@Import?2Math?2CMatrix4x4?4cpp?$AA@
	lea	ecx, DWORD PTR $T5[ebp]
	call	??0CFatalException@gen@@QAE@PBD00@Z	; gen::CFatalException::CFatalException
	push	OFFSET __TI1?AVCFatalException@gen@@
	lea	eax, DWORD PTR $T5[ebp]
	push	eax
	call	__CxxThrowException@8
$LN68@MatrixRota:
$LN57@MatrixRota:
	npad	1
$LN65@MatrixRota:

; 2655 : }

	DD	$LN2@MatrixRota
	DD	$LN5@MatrixRota
	DD	$LN6@MatrixRota
	DD	$LN3@MatrixRota
	DD	$LN4@MatrixRota
	DD	$LN7@MatrixRota
_TEXT	ENDS
;	COMDAT text$x
text$x	SEGMENT
__ehhandler$?MatrixRotation@gen@@YA?AVCMatrix4x4@1@VCVector3@1@W4ERotationOrder@1@@Z:
	mov	edx, DWORD PTR [esp+8]
	lea	eax, DWORD PTR [edx+12]
	mov	ecx, DWORD PTR [edx-276]
	xor	ecx, eax
	call	@__security_check_cookie@4
	mov	ecx, DWORD PTR [edx-8]
	xor	ecx, eax
	call	@__security_check_cookie@4
	mov	eax, OFFSET __ehfuncinfo$?MatrixRotation@gen@@YA?AVCMatrix4x4@1@VCVector3@1@W4ERotationOrder@1@@Z
	jmp	___CxxFrameHandler3
text$x	ENDS
?MatrixRotation@gen@@YA?AVCMatrix4x4@1@VCVector3@1@W4ERotationOrder@1@@Z ENDP ; gen::MatrixRotation
; Function compile flags: /Ogtp
; File c:\users\simon\documents\github\post-processing\import\math\cmatrix4x4.cpp
; File c:\program files (x86)\microsoft visual studio 12.0\vc\include\math.h
; File c:\users\simon\documents\github\post-processing\import\math\cmatrix4x4.cpp
; File c:\program files (x86)\microsoft visual studio 12.0\vc\include\math.h
; File c:\users\simon\documents\github\post-processing\import\math\cmatrix4x4.cpp
;	COMDAT ?MatrixRotationZ@gen@@YA?AVCMatrix4x4@1@M@Z
_TEXT	SEGMENT
_sZ$1$ = -4						; size = 4
___$ReturnUdt$ = 8					; size = 4
_z$ = 12						; size = 4
?MatrixRotationZ@gen@@YA?AVCMatrix4x4@1@M@Z PROC	; gen::MatrixRotationZ, COMDAT

; 2491 : {

	push	ebp
	mov	ebp, esp
	push	ecx
	movss	xmm0, DWORD PTR _z$[ebp]
; File c:\program files (x86)\microsoft visual studio 12.0\vc\include\math.h

; 765  :     return (float)sin(_X);

	cvtps2pd xmm0, xmm0
	call	__libm_sse2_sin_precise
	cvtsd2ss xmm0, xmm0
	movss	DWORD PTR _sZ$1$[ebp], xmm0
	movss	xmm0, DWORD PTR _z$[ebp]

; 664  :     return (float)cos(_X);

	cvtps2pd xmm0, xmm0
	call	__libm_sse2_cos_precise
; File c:\users\simon\documents\github\post-processing\import\math\cmatrix4x4.cpp

; 2497 : 	m.e00 = cZ;

	mov	eax, DWORD PTR ___$ReturnUdt$[ebp]
	xorps	xmm1, xmm1

; 2498 : 	m.e01 = sZ;

	movss	xmm2, DWORD PTR _sZ$1$[ebp]
; File c:\program files (x86)\microsoft visual studio 12.0\vc\include\math.h

; 664  :     return (float)cos(_X);

	cvtsd2ss xmm1, xmm0
; File c:\users\simon\documents\github\post-processing\import\math\cmatrix4x4.cpp

; 2499 : 	m.e02 = 0.0f;

	mov	DWORD PTR [eax+8], 0

; 2500 : 	m.e03 = 0.0f;

	mov	DWORD PTR [eax+12], 0

; 2501 : 
; 2502 : 	m.e10 = -sZ;
; 2503 : 	m.e11 = cZ;
; 2504 : 	m.e12 = 0.0f;

	mov	DWORD PTR [eax+24], 0
	movss	DWORD PTR [eax+4], xmm2
	xorps	xmm2, DWORD PTR __xmm@80000000800000008000000080000000
	movss	DWORD PTR [eax], xmm1
	movss	DWORD PTR [eax+16], xmm2
	movss	DWORD PTR [eax+20], xmm1

; 2505 : 	m.e13 = 0.0f;

	mov	DWORD PTR [eax+28], 0

; 2506 : 
; 2507 : 	m.e20 = 0.0f;

	mov	DWORD PTR [eax+32], 0

; 2508 : 	m.e21 = 0.0f;

	mov	DWORD PTR [eax+36], 0

; 2509 : 	m.e22 = 1.0f;

	mov	DWORD PTR [eax+40], 1065353216		; 3f800000H

; 2510 : 	m.e23 = 0.0f;

	mov	DWORD PTR [eax+44], 0

; 2511 : 
; 2512 : 	m.e30 = 0.0f;

	mov	DWORD PTR [eax+48], 0

; 2513 : 	m.e31 = 0.0f;

	mov	DWORD PTR [eax+52], 0

; 2514 : 	m.e32 = 0.0f;

	mov	DWORD PTR [eax+56], 0

; 2515 : 	m.e33 = 1.0f;

	mov	DWORD PTR [eax+60], 1065353216		; 3f800000H

; 2516 : 
; 2517 : 	return m;
; 2518 : }

	mov	esp, ebp
	pop	ebp
	ret	0
?MatrixRotationZ@gen@@YA?AVCMatrix4x4@1@M@Z ENDP	; gen::MatrixRotationZ
_TEXT	ENDS
; Function compile flags: /Ogtp
; File c:\users\simon\documents\github\post-processing\import\math\cmatrix4x4.cpp
; File c:\program files (x86)\microsoft visual studio 12.0\vc\include\math.h
; File c:\users\simon\documents\github\post-processing\import\math\cmatrix4x4.cpp
; File c:\program files (x86)\microsoft visual studio 12.0\vc\include\math.h
; File c:\users\simon\documents\github\post-processing\import\math\cmatrix4x4.cpp
;	COMDAT ?MatrixRotationY@gen@@YA?AVCMatrix4x4@1@M@Z
_TEXT	SEGMENT
_sY$1$ = -4						; size = 4
___$ReturnUdt$ = 8					; size = 4
_y$ = 12						; size = 4
?MatrixRotationY@gen@@YA?AVCMatrix4x4@1@M@Z PROC	; gen::MatrixRotationY, COMDAT

; 2460 : {

	push	ebp
	mov	ebp, esp
	push	ecx
	movss	xmm0, DWORD PTR _y$[ebp]
; File c:\program files (x86)\microsoft visual studio 12.0\vc\include\math.h

; 765  :     return (float)sin(_X);

	cvtps2pd xmm0, xmm0
	call	__libm_sse2_sin_precise
	cvtsd2ss xmm0, xmm0
	movss	DWORD PTR _sY$1$[ebp], xmm0
	movss	xmm0, DWORD PTR _y$[ebp]

; 664  :     return (float)cos(_X);

	cvtps2pd xmm0, xmm0
	call	__libm_sse2_cos_precise
; File c:\users\simon\documents\github\post-processing\import\math\cmatrix4x4.cpp

; 2466 : 	m.e00 = cY;

	mov	eax, DWORD PTR ___$ReturnUdt$[ebp]
	xorps	xmm1, xmm1

; 2468 : 	m.e02 = -sY;

	movss	xmm2, DWORD PTR _sY$1$[ebp]
; File c:\program files (x86)\microsoft visual studio 12.0\vc\include\math.h

; 664  :     return (float)cos(_X);

	cvtsd2ss xmm1, xmm0
; File c:\users\simon\documents\github\post-processing\import\math\cmatrix4x4.cpp

; 2467 : 	m.e01 = 0.0f;

	mov	DWORD PTR [eax+4], 0

; 2469 : 	m.e03 = 0.0f;

	mov	DWORD PTR [eax+12], 0

; 2470 : 
; 2471 : 	m.e10 = 0.0f;

	mov	DWORD PTR [eax+16], 0
	movaps	xmm0, xmm2

; 2472 : 	m.e11 = 1.0f;

	mov	DWORD PTR [eax+20], 1065353216		; 3f800000H
	xorps	xmm0, DWORD PTR __xmm@80000000800000008000000080000000
	movss	DWORD PTR [eax], xmm1
	movss	DWORD PTR [eax+8], xmm0

; 2473 : 	m.e12 = 0.0f;

	mov	DWORD PTR [eax+24], 0

; 2474 : 	m.e13 = 0.0f;

	mov	DWORD PTR [eax+28], 0

; 2475 : 
; 2476 : 	m.e20 = sY;

	movss	DWORD PTR [eax+32], xmm2

; 2477 : 	m.e21 = 0.0f;

	mov	DWORD PTR [eax+36], 0

; 2478 : 	m.e22 = cY;

	movss	DWORD PTR [eax+40], xmm1

; 2479 : 	m.e23 = 0.0f;

	mov	DWORD PTR [eax+44], 0

; 2480 : 
; 2481 : 	m.e30 = 0.0f;

	mov	DWORD PTR [eax+48], 0

; 2482 : 	m.e31 = 0.0f;

	mov	DWORD PTR [eax+52], 0

; 2483 : 	m.e32 = 0.0f;

	mov	DWORD PTR [eax+56], 0

; 2484 : 	m.e33 = 1.0f;    

	mov	DWORD PTR [eax+60], 1065353216		; 3f800000H

; 2485 : 
; 2486 : 	return m;
; 2487 : }

	mov	esp, ebp
	pop	ebp
	ret	0
?MatrixRotationY@gen@@YA?AVCMatrix4x4@1@M@Z ENDP	; gen::MatrixRotationY
_TEXT	ENDS
; Function compile flags: /Ogtp
; File c:\users\simon\documents\github\post-processing\import\math\cmatrix4x4.cpp
; File c:\program files (x86)\microsoft visual studio 12.0\vc\include\math.h
; File c:\users\simon\documents\github\post-processing\import\math\cmatrix4x4.cpp
; File c:\program files (x86)\microsoft visual studio 12.0\vc\include\math.h
; File c:\users\simon\documents\github\post-processing\import\math\cmatrix4x4.cpp
;	COMDAT ?MatrixRotationX@gen@@YA?AVCMatrix4x4@1@M@Z
_TEXT	SEGMENT
_sX$1$ = -4						; size = 4
___$ReturnUdt$ = 8					; size = 4
_x$ = 12						; size = 4
?MatrixRotationX@gen@@YA?AVCMatrix4x4@1@M@Z PROC	; gen::MatrixRotationX, COMDAT

; 2429 : {

	push	ebp
	mov	ebp, esp
	push	ecx
	movss	xmm0, DWORD PTR _x$[ebp]
; File c:\program files (x86)\microsoft visual studio 12.0\vc\include\math.h

; 765  :     return (float)sin(_X);

	cvtps2pd xmm0, xmm0
	call	__libm_sse2_sin_precise
	cvtsd2ss xmm0, xmm0
	movss	DWORD PTR _sX$1$[ebp], xmm0
	movss	xmm0, DWORD PTR _x$[ebp]

; 664  :     return (float)cos(_X);

	cvtps2pd xmm0, xmm0
	call	__libm_sse2_cos_precise
; File c:\users\simon\documents\github\post-processing\import\math\cmatrix4x4.cpp

; 2435 : 	m.e00 = 1.0f;

	mov	eax, DWORD PTR ___$ReturnUdt$[ebp]
	xorps	xmm1, xmm1
; File c:\program files (x86)\microsoft visual studio 12.0\vc\include\math.h

; 664  :     return (float)cos(_X);

	cvtsd2ss xmm1, xmm0
; File c:\users\simon\documents\github\post-processing\import\math\cmatrix4x4.cpp

; 2435 : 	m.e00 = 1.0f;

	mov	DWORD PTR [eax], 1065353216		; 3f800000H

; 2436 : 	m.e01 = 0.0f;

	mov	DWORD PTR [eax+4], 0

; 2437 : 	m.e02 = 0.0f;
; 2438 : 	m.e03 = 0.0f;
; 2439 : 
; 2440 : 	m.e10 = 0.0f;
; 2441 : 	m.e11 = cX;
; 2442 : 	m.e12 = sX;

	movss	xmm0, DWORD PTR _sX$1$[ebp]
	movss	DWORD PTR [eax+24], xmm0

; 2443 : 	m.e13 = 0.0f;
; 2444 : 
; 2445 : 	m.e20 = 0.0f;
; 2446 : 	m.e21 = -sX;

	xorps	xmm0, DWORD PTR __xmm@80000000800000008000000080000000
	mov	DWORD PTR [eax+8], 0
	mov	DWORD PTR [eax+12], 0
	mov	DWORD PTR [eax+16], 0
	movss	DWORD PTR [eax+20], xmm1
	mov	DWORD PTR [eax+28], 0
	mov	DWORD PTR [eax+32], 0
	movss	DWORD PTR [eax+36], xmm0

; 2447 : 	m.e22 = cX;

	movss	DWORD PTR [eax+40], xmm1

; 2448 : 	m.e23 = 0.0f;

	mov	DWORD PTR [eax+44], 0

; 2449 : 
; 2450 : 	m.e30 = 0.0f;

	mov	DWORD PTR [eax+48], 0

; 2451 : 	m.e31 = 0.0f;

	mov	DWORD PTR [eax+52], 0

; 2452 : 	m.e32 = 0.0f;

	mov	DWORD PTR [eax+56], 0

; 2453 : 	m.e33 = 1.0f;

	mov	DWORD PTR [eax+60], 1065353216		; 3f800000H

; 2454 : 
; 2455 : 	return m;
; 2456 : }

	mov	esp, ebp
	pop	ebp
	ret	0
?MatrixRotationX@gen@@YA?AVCMatrix4x4@1@M@Z ENDP	; gen::MatrixRotationX
_TEXT	ENDS
; Function compile flags: /Ogtp
; File c:\users\simon\documents\github\post-processing\import\math\cmatrix4x4.cpp
;	COMDAT ?MatrixTranslation@gen@@YA?AVCMatrix4x4@1@ABVCVector3@1@@Z
_TEXT	SEGMENT
___$ReturnUdt$ = 8					; size = 4
_translate$ = 12					; size = 4
?MatrixTranslation@gen@@YA?AVCMatrix4x4@1@ABVCVector3@1@@Z PROC ; gen::MatrixTranslation, COMDAT

; 2400 : {

	push	ebp
	mov	ebp, esp

; 2401 : 	CMatrix4x4 m;
; 2402 : 
; 2403 : 	m.e00 = 1.0f;

	mov	eax, DWORD PTR ___$ReturnUdt$[ebp]

; 2404 : 	m.e01 = 0.0f;
; 2405 : 	m.e02 = 0.0f;
; 2406 : 	m.e03 = 0.0f;
; 2407 : 
; 2408 : 	m.e10 = 0.0f;
; 2409 : 	m.e11 = 1.0f;
; 2410 : 	m.e12 = 0.0f;
; 2411 : 	m.e13 = 0.0f;
; 2412 : 
; 2413 : 	m.e20 = 0.0f;
; 2414 : 	m.e21 = 0.0f;
; 2415 : 	m.e22 = 1.0f;
; 2416 : 	m.e23 = 0.0f;
; 2417 : 
; 2418 : 	m.e30 = translate.x;

	mov	edx, DWORD PTR _translate$[ebp]
	mov	DWORD PTR [eax], 1065353216		; 3f800000H
	mov	ecx, DWORD PTR [edx]
	mov	DWORD PTR [eax+48], ecx

; 2419 : 	m.e31 = translate.y;

	mov	ecx, DWORD PTR [edx+4]
	mov	DWORD PTR [eax+52], ecx

; 2420 : 	m.e32 = translate.z;

	mov	ecx, DWORD PTR [edx+8]
	mov	DWORD PTR [eax+4], 0
	mov	DWORD PTR [eax+8], 0
	mov	DWORD PTR [eax+12], 0
	mov	DWORD PTR [eax+16], 0
	mov	DWORD PTR [eax+20], 1065353216		; 3f800000H
	mov	DWORD PTR [eax+24], 0
	mov	DWORD PTR [eax+28], 0
	mov	DWORD PTR [eax+32], 0
	mov	DWORD PTR [eax+36], 0
	mov	DWORD PTR [eax+40], 1065353216		; 3f800000H
	mov	DWORD PTR [eax+44], 0
	mov	DWORD PTR [eax+56], ecx

; 2421 : 	m.e33 = 1.0f;

	mov	DWORD PTR [eax+60], 1065353216		; 3f800000H

; 2422 : 
; 2423 : 	return m;
; 2424 : }

	pop	ebp
	ret	0
?MatrixTranslation@gen@@YA?AVCMatrix4x4@1@ABVCVector3@1@@Z ENDP ; gen::MatrixTranslation
_TEXT	ENDS
; Function compile flags: /Ogtp
; File c:\users\simon\documents\github\post-processing\import\math\cmatrix4x4.cpp
;	COMDAT ?MatrixIdentity@gen@@YA?AVCMatrix4x4@1@XZ
_TEXT	SEGMENT
___$ReturnUdt$ = 8					; size = 4
?MatrixIdentity@gen@@YA?AVCMatrix4x4@1@XZ PROC		; gen::MatrixIdentity, COMDAT

; 2372 : {

	push	ebp
	mov	ebp, esp

; 2373 : 	CMatrix4x4 m;
; 2374 : 
; 2375 : 	m.e00 = 1.0f;

	mov	eax, DWORD PTR ___$ReturnUdt$[ebp]
	mov	DWORD PTR [eax], 1065353216		; 3f800000H

; 2376 : 	m.e01 = 0.0f;

	mov	DWORD PTR [eax+4], 0

; 2377 : 	m.e02 = 0.0f; 

	mov	DWORD PTR [eax+8], 0

; 2378 : 	m.e03 = 0.0f;

	mov	DWORD PTR [eax+12], 0

; 2379 : 
; 2380 : 	m.e10 = 0.0f;

	mov	DWORD PTR [eax+16], 0

; 2381 : 	m.e11 = 1.0f;

	mov	DWORD PTR [eax+20], 1065353216		; 3f800000H

; 2382 : 	m.e12 = 0.0f;

	mov	DWORD PTR [eax+24], 0

; 2383 : 	m.e13 = 0.0f;

	mov	DWORD PTR [eax+28], 0

; 2384 : 
; 2385 : 	m.e20 = 0.0f;

	mov	DWORD PTR [eax+32], 0

; 2386 : 	m.e21 = 0.0f;

	mov	DWORD PTR [eax+36], 0

; 2387 : 	m.e22 = 1.0f;

	mov	DWORD PTR [eax+40], 1065353216		; 3f800000H

; 2388 : 	m.e23 = 0.0f;

	mov	DWORD PTR [eax+44], 0

; 2389 : 
; 2390 : 	m.e30 = 0.0f;

	mov	DWORD PTR [eax+48], 0

; 2391 : 	m.e31 = 0.0f;

	mov	DWORD PTR [eax+52], 0

; 2392 : 	m.e32 = 0.0f;

	mov	DWORD PTR [eax+56], 0

; 2393 : 	m.e33 = 1.0f;

	mov	DWORD PTR [eax+60], 1065353216		; 3f800000H

; 2394 : 
; 2395 : 	return m;
; 2396 : }

	pop	ebp
	ret	0
?MatrixIdentity@gen@@YA?AVCMatrix4x4@1@XZ ENDP		; gen::MatrixIdentity
_TEXT	ENDS
; Function compile flags: /Ogtp
; File c:\users\simon\documents\github\post-processing\import\math\cmatrix4x4.cpp
; File c:\program files (x86)\microsoft visual studio 12.0\vc\include\math.h
; File c:\users\simon\documents\github\post-processing\import\math\basemath.h
; File c:\users\simon\documents\github\post-processing\import\math\cmatrix4x4.cpp
;	COMDAT ?Inverse@gen@@YA?AVCMatrix4x4@1@ABV21@@Z
_TEXT	SEGMENT
_e$2 = -284						; size = 4
tv2497 = -280						; size = 4
_det0$1$ = -276						; size = 4
___$ReturnUdt$GSCopy$1$ = -272				; size = 4
_det0$1$ = -268						; size = 4
_det2$1$ = -264						; size = 4
tv2496 = -264						; size = 4
_det$1$ = -260						; size = 4
tv2517 = -260						; size = 4
_invDet$1$ = -256					; size = 4
tv2502 = -256						; size = 4
_det0$1$ = -252						; size = 4
_i$1$ = -252						; size = 4
$T3 = -248						; size = 76
$T4 = -172						; size = 76
$T5 = -96						; size = 76
__$ArrayPad$ = -20					; size = 4
__$EHRec$ = -16						; size = 16
___$ReturnUdt$ = 8					; size = 4
_m$ = 12						; size = 4
?Inverse@gen@@YA?AVCMatrix4x4@1@ABV21@@Z PROC		; gen::Inverse, COMDAT

; 1973 : {

	push	ebp
	mov	ebp, esp
	push	-1
	push	__ehhandler$?Inverse@gen@@YA?AVCMatrix4x4@1@ABV21@@Z
	mov	eax, DWORD PTR fs:0
	push	eax
	sub	esp, 272				; 00000110H
	mov	eax, DWORD PTR ___security_cookie
	xor	eax, ebp
	mov	DWORD PTR __$ArrayPad$[ebp], eax
	push	ebx
	push	esi
	push	edi
	push	eax
	lea	eax, DWORD PTR __$EHRec$[ebp+4]
	mov	DWORD PTR fs:0, eax
	mov	DWORD PTR __$EHRec$[ebp], esp

; 1949 : 	                m[rows[1]][cols[2]]*m[rows[2]][cols[1]];

	mov	ecx, DWORD PTR _m$[ebp]
	mov	edx, DWORD PTR ___$ReturnUdt$[ebp]
	mov	DWORD PTR ___$ReturnUdt$GSCopy$1$[ebp], edx

; 1974 : 	GEN_GUARD;

	mov	DWORD PTR __$EHRec$[ebp+12], 0

; 1949 : 	                m[rows[1]][cols[2]]*m[rows[2]][cols[1]];

	movss	xmm4, DWORD PTR [ecx+60]
	movss	xmm2, DWORD PTR [ecx+44]
	movaps	xmm3, xmm4
	movss	xmm7, DWORD PTR [ecx+40]
	movaps	xmm0, xmm2
	movss	xmm6, DWORD PTR [ecx+56]

; 1950 : 	TFloat32 det1 = m[rows[1]][cols[2]]*m[rows[2]][cols[0]] - 
; 1951 : 	                m[rows[1]][cols[0]]*m[rows[2]][cols[2]];

	movss	xmm5, DWORD PTR [ecx+36]
	mulss	xmm0, xmm6
	movaps	xmm1, xmm5
	mulss	xmm3, xmm7
	mulss	xmm1, xmm4
	subss	xmm3, xmm0

; 1952 : 	TFloat32 det2 = m[rows[1]][cols[0]]*m[rows[2]][cols[1]] - 
; 1953 : 	                m[rows[1]][cols[1]]*m[rows[2]][cols[0]];

	mulss	xmm5, xmm6
	movss	xmm0, DWORD PTR [ecx+52]
	movss	DWORD PTR tv2496[ebp], xmm0
	mulss	xmm0, xmm2
	movss	DWORD PTR _det0$1$[ebp], xmm1
	movss	DWORD PTR _det0$1$[ebp], xmm3
	movaps	xmm1, xmm0
	movss	DWORD PTR tv2497[ebp], xmm0
	movss	xmm0, DWORD PTR [ecx+52]
	subss	xmm1, DWORD PTR _det0$1$[ebp]
	mulss	xmm0, xmm7
	subss	xmm5, xmm0

; 1954 : 	TFloat32 det = m[rows[0]][cols[0]]*det0 + 
; 1955 : 	               m[rows[0]][cols[1]]*det1 +
; 1956 : 				   m[rows[0]][cols[2]]*det2;

	movss	xmm0, DWORD PTR [ecx+24]
	movss	DWORD PTR tv2502[ebp], xmm0
	movss	DWORD PTR _det0$1$[ebp], xmm5
	movaps	xmm5, xmm0
	movss	xmm0, DWORD PTR [ecx+20]
	mulss	xmm0, xmm3

; 1950 : 	TFloat32 det1 = m[rows[1]][cols[2]]*m[rows[2]][cols[0]] - 
; 1951 : 	                m[rows[1]][cols[0]]*m[rows[2]][cols[2]];

	movss	xmm3, DWORD PTR [ecx+48]

; 1954 : 	TFloat32 det = m[rows[0]][cols[0]]*det0 + 
; 1955 : 	               m[rows[0]][cols[1]]*det1 +
; 1956 : 				   m[rows[0]][cols[2]]*det2;

	mulss	xmm5, xmm1

; 1950 : 	TFloat32 det1 = m[rows[1]][cols[2]]*m[rows[2]][cols[0]] - 
; 1951 : 	                m[rows[1]][cols[0]]*m[rows[2]][cols[2]];

	movss	xmm1, DWORD PTR [ecx+32]

; 1954 : 	TFloat32 det = m[rows[0]][cols[0]]*det0 + 
; 1955 : 	               m[rows[0]][cols[1]]*det1 +
; 1956 : 				   m[rows[0]][cols[2]]*det2;

	addss	xmm5, xmm0
	movss	xmm0, DWORD PTR [ecx+28]
	mulss	xmm0, DWORD PTR _det0$1$[ebp]
	addss	xmm5, xmm0

; 1950 : 	TFloat32 det1 = m[rows[1]][cols[2]]*m[rows[2]][cols[0]] - 
; 1951 : 	                m[rows[1]][cols[0]]*m[rows[2]][cols[2]];

	movaps	xmm0, xmm1
	mulss	xmm0, xmm4

; 1952 : 	TFloat32 det2 = m[rows[1]][cols[0]]*m[rows[2]][cols[1]] - 
; 1953 : 	                m[rows[1]][cols[1]]*m[rows[2]][cols[0]];

	movaps	xmm4, xmm1
	mulss	xmm4, xmm6
	movaps	xmm6, xmm3

; 1954 : 	TFloat32 det = m[rows[0]][cols[0]]*det0 + 
; 1955 : 	               m[rows[0]][cols[1]]*det1 +
; 1956 : 				   m[rows[0]][cols[2]]*det2;

	movss	DWORD PTR _det$1$[ebp], xmm5

; 1950 : 	TFloat32 det1 = m[rows[1]][cols[2]]*m[rows[2]][cols[0]] - 
; 1951 : 	                m[rows[1]][cols[0]]*m[rows[2]][cols[2]];

	movaps	xmm5, xmm3

; 1952 : 	TFloat32 det2 = m[rows[1]][cols[0]]*m[rows[2]][cols[1]] - 
; 1953 : 	                m[rows[1]][cols[1]]*m[rows[2]][cols[0]];

	mulss	xmm3, DWORD PTR [ecx+36]

; 1950 : 	TFloat32 det1 = m[rows[1]][cols[2]]*m[rows[2]][cols[0]] - 
; 1951 : 	                m[rows[1]][cols[0]]*m[rows[2]][cols[2]];

	mulss	xmm5, xmm2

; 1952 : 	TFloat32 det2 = m[rows[1]][cols[0]]*m[rows[2]][cols[1]] - 
; 1953 : 	                m[rows[1]][cols[1]]*m[rows[2]][cols[0]];

	movaps	xmm1, xmm4
	mulss	xmm6, xmm7

; 1954 : 	TFloat32 det = m[rows[0]][cols[0]]*det0 + 
; 1955 : 	               m[rows[0]][cols[1]]*det1 +
; 1956 : 				   m[rows[0]][cols[2]]*det2;

	movss	xmm7, DWORD PTR [ecx+16]
	subss	xmm5, xmm0
	mulss	xmm7, DWORD PTR _det0$1$[ebp]
	subss	xmm1, xmm6

; 1950 : 	TFloat32 det1 = m[rows[1]][cols[2]]*m[rows[2]][cols[0]] - 
; 1951 : 	                m[rows[1]][cols[0]]*m[rows[2]][cols[2]];

	subss	xmm6, xmm4

; 1954 : 	TFloat32 det = m[rows[0]][cols[0]]*det0 + 
; 1955 : 	               m[rows[0]][cols[1]]*det1 +
; 1956 : 				   m[rows[0]][cols[2]]*det2;

	movaps	xmm0, xmm5
	mulss	xmm5, DWORD PTR [ecx+20]
	mulss	xmm0, DWORD PTR [ecx+24]
	mulss	xmm1, DWORD PTR [ecx+28]
	addss	xmm7, xmm0
	mulss	xmm6, DWORD PTR [ecx+20]

; 1949 : 	                m[rows[1]][cols[2]]*m[rows[2]][cols[1]];

	movss	xmm0, DWORD PTR _det0$1$[ebp]
	subss	xmm0, DWORD PTR tv2497[ebp]

; 1954 : 	TFloat32 det = m[rows[0]][cols[0]]*det0 + 
; 1955 : 	               m[rows[0]][cols[1]]*det1 +
; 1956 : 				   m[rows[0]][cols[2]]*det2;

	addss	xmm7, xmm1

; 1949 : 	                m[rows[1]][cols[2]]*m[rows[2]][cols[1]];

	movss	DWORD PTR _det0$1$[ebp], xmm0

; 1952 : 	TFloat32 det2 = m[rows[1]][cols[0]]*m[rows[2]][cols[1]] - 
; 1953 : 	                m[rows[1]][cols[1]]*m[rows[2]][cols[0]];

	movss	xmm0, DWORD PTR [ecx+32]
	mulss	xmm0, DWORD PTR tv2496[ebp]

; 1957 : 
; 1958 : 	// Determine if i+j is even/odd to calculate (-1) term
; 1959 : 	return ((((i+j) & 1) == 0) ? det : -det);

	xorps	xmm7, DWORD PTR __xmm@80000000800000008000000080000000

; 1952 : 	TFloat32 det2 = m[rows[1]][cols[0]]*m[rows[2]][cols[1]] - 
; 1953 : 	                m[rows[1]][cols[1]]*m[rows[2]][cols[0]];

	subss	xmm0, xmm3

; 1954 : 	TFloat32 det = m[rows[0]][cols[0]]*det0 + 
; 1955 : 	               m[rows[0]][cols[1]]*det1 +
; 1956 : 				   m[rows[0]][cols[2]]*det2;

	movss	xmm3, DWORD PTR [ecx+16]
	movaps	xmm1, xmm3
	mulss	xmm3, DWORD PTR _det0$1$[ebp]
	mulss	xmm1, DWORD PTR _det0$1$[ebp]
	movss	DWORD PTR _det2$1$[ebp], xmm0
	addss	xmm3, xmm6
	mulss	xmm0, DWORD PTR [ecx+28]
	addss	xmm1, xmm5
	addss	xmm1, xmm0
	movss	xmm0, DWORD PTR _det2$1$[ebp]
	mulss	xmm0, DWORD PTR tv2502[ebp]

; 1975 : 
; 1976 : 	CMatrix4x4 mOut;
; 1977 : 
; 1978 : 	// Calculate determinant
; 1979 : 	TFloat32 det = m.e00 * Cofactor( m, 0, 0 ) + m.e01 * Cofactor( m, 0, 1 ) + 
; 1980 : 	               m.e02 * Cofactor( m, 0, 2 ) + m.e03 * Cofactor( m, 0, 3 ); 

	movss	xmm2, DWORD PTR [ecx+4]
	mulss	xmm2, xmm7

; 1954 : 	TFloat32 det = m[rows[0]][cols[0]]*det0 + 
; 1955 : 	               m[rows[0]][cols[1]]*det1 +
; 1956 : 				   m[rows[0]][cols[2]]*det2;

	addss	xmm3, xmm0

; 1975 : 
; 1976 : 	CMatrix4x4 mOut;
; 1977 : 
; 1978 : 	// Calculate determinant
; 1979 : 	TFloat32 det = m.e00 * Cofactor( m, 0, 0 ) + m.e01 * Cofactor( m, 0, 1 ) + 
; 1980 : 	               m.e02 * Cofactor( m, 0, 2 ) + m.e03 * Cofactor( m, 0, 3 ); 

	movss	xmm0, DWORD PTR [ecx]
	mulss	xmm0, DWORD PTR _det$1$[ebp]

; 1957 : 
; 1958 : 	// Determine if i+j is even/odd to calculate (-1) term
; 1959 : 	return ((((i+j) & 1) == 0) ? det : -det);

	xorps	xmm3, DWORD PTR __xmm@80000000800000008000000080000000

; 1975 : 
; 1976 : 	CMatrix4x4 mOut;
; 1977 : 
; 1978 : 	// Calculate determinant
; 1979 : 	TFloat32 det = m.e00 * Cofactor( m, 0, 0 ) + m.e01 * Cofactor( m, 0, 1 ) + 
; 1980 : 	               m.e02 * Cofactor( m, 0, 2 ) + m.e03 * Cofactor( m, 0, 3 ); 

	addss	xmm2, xmm0
	movss	xmm0, DWORD PTR [ecx+8]
	mulss	xmm0, xmm1
	addss	xmm2, xmm0
	movss	xmm0, DWORD PTR [ecx+12]
	mulss	xmm0, xmm3
	addss	xmm2, xmm0
; File c:\program files (x86)\microsoft visual studio 12.0\vc\include\math.h

; 687  :     return (float)fabs(_X);

	cvtps2pd xmm0, xmm2
	andpd	xmm0, QWORD PTR __xmm@7fffffffffffffff7fffffffffffffff
	cvtpd2ps xmm1, xmm0
; File c:\users\simon\documents\github\post-processing\import\math\basemath.h

; 292  : 	return Abs( x ) < fEpsilon;

	movss	xmm0, DWORD PTR __real@350637bd
	comiss	xmm0, xmm1
; File c:\users\simon\documents\github\post-processing\import\math\cmatrix4x4.cpp

; 1981 : 	GEN_ASSERT( !IsZero(det), "Singular matrix" );

	jbe	$LN7@Inverse
	push	1981					; 000007bdH
	push	OFFSET ??_C@_0BL@PHCLKOGI@Import?2Math?2CMatrix4x4?4cpp?$AA@
	push	OFFSET ??_C@_0BA@EJDDFENM@Singular?5matrix?$AA@
	lea	ecx, DWORD PTR $T3[ebp]
	call	??0CFatalException@gen@@QAE@PBD0H@Z	; gen::CFatalException::CFatalException
	push	OFFSET __TI1?AVCFatalException@gen@@
	lea	eax, DWORD PTR $T3[ebp]
	push	eax
	call	__CxxThrowException@8
$LN387@Inverse:
__catch$?Inverse@gen@@YA?AVCMatrix4x4@1@ABV21@@Z$0:

; 1994 : 
; 1995 : 	GEN_ENDGUARD;

	mov	esi, DWORD PTR _e$2[ebp]
	mov	ecx, esi
	push	0
	push	OFFSET ??_C@_00CNPNBAHC@?$AA@
	push	OFFSET ??_C@_0N@BLGPECID@gen?3?3Inverse?$AA@
	call	?AppendToCallStack@CFatalException@gen@@QAEXPBD0_N@Z ; gen::CFatalException::AppendToCallStack
	push	esi
	lea	ecx, DWORD PTR $T4[ebp]
	call	??0CFatalException@gen@@QAE@ABV01@@Z
	push	OFFSET __TI1?AVCFatalException@gen@@
	lea	eax, DWORD PTR $T4[ebp]
	push	eax
	call	__CxxThrowException@8
$LN388@Inverse:
__catch$?Inverse@gen@@YA?AVCMatrix4x4@1@ABV21@@Z$1:
	push	OFFSET ??_C@_00CNPNBAHC@?$AA@
	push	OFFSET ??_C@_0N@BLGPECID@gen?3?3Inverse?$AA@
	push	OFFSET ??_C@_0BL@PHCLKOGI@Import?2Math?2CMatrix4x4?4cpp?$AA@
	lea	ecx, DWORD PTR $T5[ebp]
	call	??0CFatalException@gen@@QAE@PBD00@Z	; gen::CFatalException::CFatalException
	push	OFFSET __TI1?AVCFatalException@gen@@
	lea	eax, DWORD PTR $T5[ebp]
	push	eax
	call	__CxxThrowException@8
$LN389@Inverse:
$LN7@Inverse:

; 1982 : 
; 1983 : 	// Inverse is (1/determinant)*adjoint matrix. Adjoint matrix is transposed matrix of cofactors
; 1984 : 	TFloat32 invDet = 1.0f / det;

	movss	xmm0, DWORD PTR __real@3f800000

; 1985 : 	for (TUInt32 i = 0; i < 4; ++i)

	xor	eax, eax
	divss	xmm0, xmm2
	mov	DWORD PTR _i$1$[ebp], eax
	mov	edi, edx
	movss	DWORD PTR _invDet$1$[ebp], xmm0
$LL6@Inverse:

; 1986 : 	{
; 1987 : 		for (TUInt32 j = 0; j < 4; ++j)

	xor	esi, esi
$LL3@Inverse:

; 1988 : 		{
; 1989 : 			mOut[i][j] = invDet * Cofactor( m, j, i );

	push	eax
	push	esi
	push	ecx
	call	?Cofactor@gen@@YAMABVCMatrix4x4@1@II@Z	; gen::Cofactor
	mov	eax, DWORD PTR _i$1$[ebp]
	inc	esi
	mov	ecx, DWORD PTR _m$[ebp]
	add	esp, 12					; 0000000cH
	fstp	DWORD PTR tv2517[ebp]
	movss	xmm0, DWORD PTR tv2517[ebp]
	mulss	xmm0, DWORD PTR _invDet$1$[ebp]
	movss	DWORD PTR [edi], xmm0
	add	edi, 4
	cmp	esi, 4
	jb	SHORT $LL3@Inverse

; 1985 : 	for (TUInt32 i = 0; i < 4; ++i)

	inc	eax
	mov	DWORD PTR _i$1$[ebp], eax
	cmp	eax, 4
	jb	SHORT $LL6@Inverse

; 1990 : 		}
; 1991 : 	}
; 1992 : 
; 1993 : 	return mOut;

	mov	eax, DWORD PTR ___$ReturnUdt$GSCopy$1$[ebp]

; 1996 : }

	mov	ecx, DWORD PTR __$EHRec$[ebp+4]
	mov	DWORD PTR fs:0, ecx
	pop	ecx
	pop	edi
	pop	esi
	pop	ebx
	mov	ecx, DWORD PTR __$ArrayPad$[ebp]
	xor	ecx, ebp
	call	@__security_check_cookie@4
	mov	esp, ebp
	pop	ebp
	ret	0
$LN386@Inverse:
_TEXT	ENDS
;	COMDAT text$x
text$x	SEGMENT
__ehhandler$?Inverse@gen@@YA?AVCMatrix4x4@1@ABV21@@Z:
	mov	edx, DWORD PTR [esp+8]
	lea	eax, DWORD PTR [edx+12]
	mov	ecx, DWORD PTR [edx-288]
	xor	ecx, eax
	call	@__security_check_cookie@4
	mov	ecx, DWORD PTR [edx-8]
	xor	ecx, eax
	call	@__security_check_cookie@4
	mov	eax, OFFSET __ehfuncinfo$?Inverse@gen@@YA?AVCMatrix4x4@1@ABV21@@Z
	jmp	___CxxFrameHandler3
text$x	ENDS
?Inverse@gen@@YA?AVCMatrix4x4@1@ABV21@@Z ENDP		; gen::Inverse
; Function compile flags: /Ogtp
; File c:\users\simon\documents\github\post-processing\import\math\cmatrix4x4.cpp
;	COMDAT ?Cofactor@gen@@YAMABVCMatrix4x4@1@II@Z
_TEXT	SEGMENT
tv274 = -32						; size = 4
_rows$ = -28						; size = 12
_cols$ = -16						; size = 12
__$ArrayPad$ = -4					; size = 4
_m$ = 8							; size = 4
_i$ = 12						; size = 4
_j$ = 16						; size = 4
?Cofactor@gen@@YAMABVCMatrix4x4@1@II@Z PROC		; gen::Cofactor, COMDAT

; 1936 : {

	push	ebp
	mov	ebp, esp
	sub	esp, 32					; 00000020H
	mov	eax, DWORD PTR ___security_cookie
	xor	eax, ebp
	mov	DWORD PTR __$ArrayPad$[ebp], eax

; 1937 : 	// Get rows and columns involved
; 1938 : 	TUInt32 rows[3];
; 1939 : 	TUInt32 cols[3];
; 1940 : 	TUInt32 row = 0, col = 0;
; 1941 : 	for (TUInt32 rowCol = 0; rowCol < 4; ++rowCol)
; 1942 : 	{
; 1943 : 		if (rowCol != i) rows[row++] = rowCol;

	mov	edx, DWORD PTR _i$[ebp]
	xor	eax, eax
	xor	ecx, ecx
	test	edx, edx
	je	SHORT $LN86@Cofactor
	mov	DWORD PTR _rows$[ebp], eax
	lea	eax, DWORD PTR [ecx+1]
$LN86@Cofactor:

; 1944 : 		if (rowCol != j) cols[col++] = rowCol;

	push	esi
	mov	esi, DWORD PTR _j$[ebp]
	push	edi
	test	esi, esi
	je	SHORT $LN4@Cofactor
	mov	DWORD PTR _cols$[ebp], ecx
	mov	ecx, 1
$LN4@Cofactor:

; 1937 : 	// Get rows and columns involved
; 1938 : 	TUInt32 rows[3];
; 1939 : 	TUInt32 cols[3];
; 1940 : 	TUInt32 row = 0, col = 0;
; 1941 : 	for (TUInt32 rowCol = 0; rowCol < 4; ++rowCol)
; 1942 : 	{
; 1943 : 		if (rowCol != i) rows[row++] = rowCol;

	cmp	edx, 1
	je	SHORT $LN78@Cofactor
	mov	DWORD PTR _rows$[ebp+eax*4], 1
	inc	eax
$LN78@Cofactor:

; 1944 : 		if (rowCol != j) cols[col++] = rowCol;

	cmp	esi, 1
	je	SHORT $LN79@Cofactor
	mov	DWORD PTR _cols$[ebp+ecx*4], 1
	inc	ecx
$LN79@Cofactor:

; 1937 : 	// Get rows and columns involved
; 1938 : 	TUInt32 rows[3];
; 1939 : 	TUInt32 cols[3];
; 1940 : 	TUInt32 row = 0, col = 0;
; 1941 : 	for (TUInt32 rowCol = 0; rowCol < 4; ++rowCol)
; 1942 : 	{
; 1943 : 		if (rowCol != i) rows[row++] = rowCol;

	cmp	edx, 2
	je	SHORT $LN81@Cofactor
	mov	DWORD PTR _rows$[ebp+eax*4], 2
	inc	eax
$LN81@Cofactor:

; 1944 : 		if (rowCol != j) cols[col++] = rowCol;

	cmp	esi, 2
	je	SHORT $LN82@Cofactor
	mov	DWORD PTR _cols$[ebp+ecx*4], 2
	inc	ecx
$LN82@Cofactor:

; 1937 : 	// Get rows and columns involved
; 1938 : 	TUInt32 rows[3];
; 1939 : 	TUInt32 cols[3];
; 1940 : 	TUInt32 row = 0, col = 0;
